ccopy_reg
_reconstructor
p0
(cneat.genome
FFGenome
p1
c__builtin__
object
p2
Ntp3
Rp4
(dp5
S'species_id'
p6
I18
sS'conn_genes'
p7
(dp8
(I10
I8
tp9
g0
(cneat.genes
ConnectionGene
p10
g2
Ntp11
Rp12
(dp13
S'_ConnectionGene__innov_number'
p14
I33
sS'weight'
p15
F0.7334259157219823
sS'enabled'
p16
I01
sS'out_node_id'
p17
I8
sS'in_node_id'
p18
I10
sbs(I10
I11
tp19
g0
(g10
g2
Ntp20
Rp21
(dp22
g14
I39
sg15
F-3.910334878697564
sg16
I00
sg17
I11
sg18
I10
sbs(I5
I6
tp23
g0
(g10
g2
Ntp24
Rp25
(dp26
g14
I1
sg15
F1.8575669078616754
sg16
I00
sg17
I6
sg18
I5
sbs(I7
I6
tp27
g0
(g10
g2
Ntp28
Rp29
(dp30
g14
I7
sg15
F0.234068266314029
sg16
I01
sg17
I6
sg18
I7
sbs(I5
I13
tp31
g0
(g10
g2
Ntp32
Rp33
(dp34
g14
I73
sg15
F-0.74378837591169
sg16
I01
sg17
I13
sg18
I5
sbs(I11
I8
tp35
g0
(g10
g2
Ntp36
Rp37
(dp38
g14
I40
sg15
F-0.5068191516460763
sg16
I00
sg17
I8
sg18
I11
sbs(I8
I7
tp39
g0
(g10
g2
Ntp40
Rp41
(dp42
g14
I18
sg15
F1.0
sg16
I01
sg17
I7
sg18
I8
sbs(I8
I6
tp43
g0
(g10
g2
Ntp44
Rp45
(dp46
g14
I14
sg15
F1.3699602916731353
sg16
I00
sg17
I6
sg18
I8
sbs(I12
I8
tp47
g0
(g10
g2
Ntp48
Rp49
(dp50
g14
I55
sg15
F1.7127490706444635
sg16
I01
sg17
I8
sg18
I12
sbssS'parent1_id'
p51
I22746
sS'num_inputs'
p52
I6
sS'node_genes'
p53
(dp54
I0
g0
(cneat.genes
NodeGene
p55
g2
Ntp56
Rp57
(dp58
S'activation_type'
p59
S'sigmoid'
p60
sS'bias'
p61
F0.0
sS'type'
p62
S'INPUT'
p63
sS'ID'
p64
I0
sS'response'
p65
F4.924273
sbsI1
g0
(g55
g2
Ntp66
Rp67
(dp68
g59
g60
sg61
F0.0
sg62
g63
sg64
I1
sg65
F4.924273
sbsI2
g0
(g55
g2
Ntp69
Rp70
(dp71
g59
g60
sg61
F0.0
sg62
g63
sg64
I2
sg65
F4.924273
sbsI3
g0
(g55
g2
Ntp72
Rp73
(dp74
g59
g60
sg61
F0.0
sg62
g63
sg64
I3
sg65
F4.924273
sbsI4
g0
(g55
g2
Ntp75
Rp76
(dp77
g59
g60
sg61
F0.0
sg62
g63
sg64
I4
sg65
F4.924273
sbsI5
g0
(g55
g2
Ntp78
Rp79
(dp80
g59
g60
sg61
F0.0
sg62
g63
sg64
I5
sg65
F4.924273
sbsI6
g0
(g55
g2
Ntp81
Rp82
(dp83
g59
S'sigmoid'
p84
sg61
F3.1706513207916016
sg62
S'OUTPUT'
p85
sg64
I6
sg65
F4.630573765163907
sbsI7
g0
(g55
g2
Ntp86
Rp87
(dp88
g59
g84
sg61
F0.0
sg62
S'HIDDEN'
p89
sg64
I7
sg65
F4.780172908807518
sbsI8
g0
(g55
g2
Ntp90
Rp91
(dp92
g59
g84
sg61
F0.626426122585209
sg62
g89
sg64
I8
sg65
F5.014524530883347
sbsI10
g0
(g55
g2
Ntp93
Rp94
(dp95
g59
g84
sg61
F0.004021653370730682
sg62
g89
sg64
I10
sg65
F4.627362355663054
sbsI11
g0
(g55
g2
Ntp96
Rp97
(dp98
g59
g84
sg61
F-1.6656413305179663
sg62
g89
sg64
I11
sg65
F4.882554673913685
sbsI12
g0
(g55
g2
Ntp99
Rp100
(dp101
g59
g84
sg61
F-2.837883359814096
sg62
g89
sg64
I12
sg65
F5.038907824453503
sbsI13
g0
(g55
g2
Ntp102
Rp103
(dp104
g59
g84
sg61
F-1.7580938205112817
sg62
g89
sg64
I13
sg65
F4.693943774612333
sbssS'node_order'
p105
(lp106
I13
aI10
aI12
aI11
aI8
aI7
asS'num_outputs'
p107
I1
sS'fitness'
p108
F1.0
sS'parent2_id'
p109
I22746
sS'config'
p110
g0
(cneat.config
Config
p111
g2
Ntp112
Rp113
(dp114
S'weight_stdev'
p115
F0.9
sS'disjoint_coefficient'
p116
F1.0
sS'prob_delete_node'
p117
F0.05
sS'output_nodes'
p118
I1
sS'checkpoint_generation'
p119
NsS'weight_mutation_power'
p120
F1.0
sS'excess_coefficient'
p121
F1.0
sS'compatibility_threshold'
p122
F3.0
sS'pop_size'
p123
I500
sS'weight_coefficient'
p124
F0.5
sS'elitism'
p125
I2
sS'feedforward'
p126
I01
sS'prob_add_node'
p127
F0.1
sS'genotype'
p128
g1
sS'prob_mutate_activation'
p129
F0.0
sS'conn_gene_type'
p130
g10
sS'connection_fraction'
p131
NsS'activation_functions'
p132
(lp133
g84
asS'response_mutation_power'
p134
F0.1
sS'max_stagnation'
p135
I20
sS'prob_add_conn'
p136
F0.1
sS'survival_threshold'
p137
F0.2
sS'prob_mutate_bias'
p138
F0.1
sS'node_gene_type'
p139
g55
sS'initial_connection'
p140
S'fs_neat'
p141
sS'input_nodes'
p142
I6
sS'prob_replace_weight'
p143
F0.1
sS'diversity_type'
p144
cneat.diversity
ExplicitFitnessSharing
p145
sS'hidden_nodes'
p146
I0
sS'report'
p147
I01
sS'prob_mutate_response'
p148
F0.2
sS'max_weight'
p149
F30.0
sS'min_weight'
p150
F-30.0
sS'prob_toggle_link'
p151
F0.01
sS'save_best'
p152
I00
sS'max_fitness_threshold'
p153
F59999.0
sS'bias_mutation_power'
p154
F1.0
sS'prob_delete_conn'
p155
F0.05
sS'reset_on_extinction'
p156
I01
sS'checkpoint_interval'
p157
NsS'prob_mutate_weight'
p158
F0.8
sbsg64
I23611
sb.