ccopy_reg
_reconstructor
p0
(cneat.genome
FFGenome
p1
c__builtin__
object
p2
Ntp3
Rp4
(dp5
S'species_id'
p6
I1
sS'conn_genes'
p7
(dp8
(I5
I6
tp9
g0
(cneat.genes
ConnectionGene
p10
g2
Ntp11
Rp12
(dp13
S'_ConnectionGene__innov_number'
p14
I0
sS'weight'
p15
F7.413327233748917
sS'enabled'
p16
I00
sS'out_node_id'
p17
I6
sS'in_node_id'
p18
I5
sbs(I7
I6
tp19
g0
(g10
g2
Ntp20
Rp21
(dp22
g14
I6
sg15
F3.2315167526225324
sg16
I01
sg17
I6
sg18
I7
sbs(I5
I7
tp23
g0
(g10
g2
Ntp24
Rp25
(dp26
g14
I5
sg15
F1.2075250010858256
sg16
I00
sg17
I7
sg18
I5
sbs(I8
I9
tp27
g0
(g10
g2
Ntp28
Rp29
(dp30
g14
I20
sg15
F4.29647992790356
sg16
I01
sg17
I9
sg18
I8
sbs(I8
I7
tp31
g0
(g10
g2
Ntp32
Rp33
(dp34
g14
I10
sg15
F1.5347525317097765
sg16
I00
sg17
I7
sg18
I8
sbs(I5
I8
tp35
g0
(g10
g2
Ntp36
Rp37
(dp38
g14
I9
sg15
F3.6199442161551882
sg16
I01
sg17
I8
sg18
I5
sbs(I9
I7
tp39
g0
(g10
g2
Ntp40
Rp41
(dp42
g14
I21
sg15
F1.1501692075536198
sg16
I01
sg17
I7
sg18
I9
sbssS'parent1_id'
p43
I371
sS'num_inputs'
p44
I6
sS'node_genes'
p45
(dp46
I0
g0
(cneat.genes
NodeGene
p47
g2
Ntp48
Rp49
(dp50
S'activation_type'
p51
S'sigmoid'
p52
sS'bias'
p53
F0.0
sS'type'
p54
S'INPUT'
p55
sS'ID'
p56
I0
sS'response'
p57
F4.924273
sbsI1
g0
(g47
g2
Ntp58
Rp59
(dp60
g51
g52
sg53
F0.0
sg54
g55
sg56
I1
sg57
F4.924273
sbsI2
g0
(g47
g2
Ntp61
Rp62
(dp63
g51
g52
sg53
F0.0
sg54
g55
sg56
I2
sg57
F4.924273
sbsI3
g0
(g47
g2
Ntp64
Rp65
(dp66
g51
g52
sg53
F0.0
sg54
g55
sg56
I3
sg57
F4.924273
sbsI4
g0
(g47
g2
Ntp67
Rp68
(dp69
g51
g52
sg53
F0.0
sg54
g55
sg56
I4
sg57
F4.924273
sbsI5
g0
(g47
g2
Ntp70
Rp71
(dp72
g51
g52
sg53
F0.0
sg54
g55
sg56
I5
sg57
F4.924273
sbsI6
g0
(g47
g2
Ntp73
Rp74
(dp75
g51
S'sigmoid'
p76
sg53
F-0.531376248644108
sg54
S'OUTPUT'
p77
sg56
I6
sg57
F5.183290967685865
sbsI7
g0
(g47
g2
Ntp78
Rp79
(dp80
g51
g76
sg53
F-1.1452821975345562
sg54
S'HIDDEN'
p81
sg56
I7
sg57
F4.615545103051889
sbsI8
g0
(g47
g2
Ntp82
Rp83
(dp84
g51
g76
sg53
F0.555824752815007
sg54
g81
sg56
I8
sg57
F5.2030328805734
sbsI9
g0
(g47
g2
Ntp85
Rp86
(dp87
g51
g76
sg53
F-0.24008995123045218
sg54
g81
sg56
I9
sg57
F5.098268268431454
sbssS'node_order'
p88
(lp89
I8
aI9
aI7
asS'num_outputs'
p90
I1
sS'fitness'
p91
F-16.0
sS'parent2_id'
p92
I371
sS'config'
p93
g0
(cneat.config
Config
p94
g2
Ntp95
Rp96
(dp97
S'weight_stdev'
p98
F0.9
sS'disjoint_coefficient'
p99
F1.0
sS'prob_delete_node'
p100
F0.05
sS'output_nodes'
p101
I1
sS'checkpoint_generation'
p102
NsS'weight_mutation_power'
p103
F1.0
sS'excess_coefficient'
p104
F1.0
sS'compatibility_threshold'
p105
F3.0
sS'pop_size'
p106
I10
sS'weight_coefficient'
p107
F0.5
sS'elitism'
p108
I2
sS'feedforward'
p109
I01
sS'prob_add_node'
p110
F0.1
sS'genotype'
p111
g1
sS'prob_mutate_activation'
p112
F0.0
sS'conn_gene_type'
p113
g10
sS'connection_fraction'
p114
NsS'activation_functions'
p115
(lp116
g76
asS'response_mutation_power'
p117
F0.1
sS'max_stagnation'
p118
I20
sS'prob_add_conn'
p119
F0.1
sS'survival_threshold'
p120
F0.2
sS'prob_mutate_bias'
p121
F0.1
sS'node_gene_type'
p122
g47
sS'initial_connection'
p123
S'fs_neat'
p124
sS'input_nodes'
p125
I6
sS'prob_replace_weight'
p126
F0.1
sS'diversity_type'
p127
cneat.diversity
ExplicitFitnessSharing
p128
sS'hidden_nodes'
p129
I0
sS'report'
p130
I01
sS'prob_mutate_response'
p131
F0.2
sS'max_weight'
p132
F30.0
sS'min_weight'
p133
F-30.0
sS'prob_toggle_link'
p134
F0.01
sS'save_best'
p135
I00
sS'max_fitness_threshold'
p136
F59999.0
sS'bias_mutation_power'
p137
F1.0
sS'prob_delete_conn'
p138
F0.05
sS'reset_on_extinction'
p139
I01
sS'checkpoint_interval'
p140
NsS'prob_mutate_weight'
p141
F0.8
sbsg56
I377
sb.