ccopy_reg
_reconstructor
p0
(cneat.genome
FFGenome
p1
c__builtin__
object
p2
Ntp3
Rp4
(dp5
S'species_id'
p6
I3
sS'conn_genes'
p7
(dp8
(I1
I5
tp9
g0
(cneat.genes
ConnectionGene
p10
g2
Ntp11
Rp12
(dp13
S'_ConnectionGene__innov_number'
p14
I6
sS'weight'
p15
F-0.4216383907979675
sS'enabled'
p16
I01
sS'out_node_id'
p17
I5
sS'in_node_id'
p18
I1
sbs(I5
I4
tp19
g0
(g10
g2
Ntp20
Rp21
(dp22
g14
I5
sg15
F-1.6502787452323087
sg16
I01
sg17
I4
sg18
I5
sbs(I3
I4
tp23
g0
(g10
g2
Ntp24
Rp25
(dp26
g14
I3
sg15
F3.0382235175349415
sg16
I01
sg17
I4
sg18
I3
sbs(I1
I4
tp27
g0
(g10
g2
Ntp28
Rp29
(dp30
g14
I1
sg15
F-4.274919750708742
sg16
I00
sg17
I4
sg18
I1
sbssS'parent1_id'
p31
I9084
sS'num_inputs'
p32
I4
sS'node_genes'
p33
(dp34
I0
g0
(cneat.genes
NodeGene
p35
g2
Ntp36
Rp37
(dp38
S'activation_type'
p39
S'sigmoid'
p40
sS'bias'
p41
F0.0
sS'type'
p42
S'INPUT'
p43
sS'ID'
p44
I0
sS'response'
p45
F4.924273
sbsI1
g0
(g35
g2
Ntp46
Rp47
(dp48
g39
g40
sg41
F0.0
sg42
g43
sg44
I1
sg45
F4.924273
sbsI2
g0
(g35
g2
Ntp49
Rp50
(dp51
g39
g40
sg41
F0.0
sg42
g43
sg44
I2
sg45
F4.924273
sbsI3
g0
(g35
g2
Ntp52
Rp53
(dp54
g39
g40
sg41
F0.0
sg42
g43
sg44
I3
sg45
F4.924273
sbsI4
g0
(g35
g2
Ntp55
Rp56
(dp57
g39
S'sigmoid'
p58
sg41
F-2.118577160234101
sg42
S'OUTPUT'
p59
sg44
I4
sg45
F4.674391827479107
sbsI5
g0
(g35
g2
Ntp60
Rp61
(dp62
g39
g58
sg41
F1.6521065691914452
sg42
S'HIDDEN'
p63
sg44
I5
sg45
F4.924273
sbssS'node_order'
p64
(lp65
I5
asS'num_outputs'
p66
I1
sS'fitness'
p67
F839.0
sS'parent2_id'
p68
I9020
sS'config'
p69
g0
(cneat.config
Config
p70
g2
Ntp71
Rp72
(dp73
S'weight_stdev'
p74
F0.9
sS'disjoint_coefficient'
p75
F1.0
sS'prob_delete_node'
p76
F0.05
sS'output_nodes'
p77
I1
sS'checkpoint_generation'
p78
NsS'weight_mutation_power'
p79
F1.0
sS'excess_coefficient'
p80
F1.0
sS'compatibility_threshold'
p81
F3.0
sS'pop_size'
p82
I500
sS'weight_coefficient'
p83
F0.5
sS'elitism'
p84
I2
sS'feedforward'
p85
I01
sS'prob_add_node'
p86
F0.1
sS'genotype'
p87
g1
sS'prob_mutate_activation'
p88
F0.0
sS'conn_gene_type'
p89
g10
sS'connection_fraction'
p90
NsS'activation_functions'
p91
(lp92
g58
asS'response_mutation_power'
p93
F0.1
sS'max_stagnation'
p94
I20
sS'prob_add_conn'
p95
F0.1
sS'survival_threshold'
p96
F0.2
sS'prob_mutate_bias'
p97
F0.1
sS'node_gene_type'
p98
g35
sS'initial_connection'
p99
S'fs_neat'
p100
sS'input_nodes'
p101
I4
sS'prob_replace_weight'
p102
F0.1
sS'diversity_type'
p103
cneat.diversity
ExplicitFitnessSharing
p104
sS'hidden_nodes'
p105
I0
sS'report'
p106
I01
sS'prob_mutate_response'
p107
F0.2
sS'max_weight'
p108
F30.0
sS'min_weight'
p109
F-30.0
sS'prob_toggle_link'
p110
F0.01
sS'save_best'
p111
I00
sS'max_fitness_threshold'
p112
F59999.0
sS'bias_mutation_power'
p113
F1.0
sS'prob_delete_conn'
p114
F0.05
sS'reset_on_extinction'
p115
I01
sS'checkpoint_interval'
p116
NsS'prob_mutate_weight'
p117
F0.8
sbsg44
I9613
sb.