ccopy_reg
_reconstructor
p0
(cneat.genome
FFGenome
p1
c__builtin__
object
p2
Ntp3
Rp4
(dp5
S'species_id'
p6
I1
sS'conn_genes'
p7
(dp8
(I5
I9
tp9
g0
(cneat.genes
ConnectionGene
p10
g2
Ntp11
Rp12
(dp13
S'_ConnectionGene__innov_number'
p14
I22
sS'weight'
p15
F1.7391069715137295
sS'enabled'
p16
I00
sS'out_node_id'
p17
I9
sS'in_node_id'
p18
I5
sbs(I4
I7
tp19
g0
(g10
g2
Ntp20
Rp21
(dp22
g14
I16
sg15
F0.11115560394821578
sg16
I01
sg17
I7
sg18
I4
sbs(I4
I8
tp23
g0
(g10
g2
Ntp24
Rp25
(dp26
g14
I17
sg15
F4.651988721125674
sg16
I01
sg17
I8
sg18
I4
sbs(I5
I6
tp27
g0
(g10
g2
Ntp28
Rp29
(dp30
g14
I23
sg15
F-0.14156856179566024
sg16
I01
sg17
I6
sg18
I5
sbs(I2
I8
tp31
g0
(g10
g2
Ntp32
Rp33
(dp34
g14
I9
sg15
F-4.460872277224232
sg16
I01
sg17
I8
sg18
I2
sbs(I0
I7
tp35
g0
(g10
g2
Ntp36
Rp37
(dp38
g14
I0
sg15
F-0.40568401207659444
sg16
I01
sg17
I7
sg18
I0
sbs(I1
I6
tp39
g0
(g10
g2
Ntp40
Rp41
(dp42
g14
I7
sg15
F-3.881807683979718
sg16
I01
sg17
I6
sg18
I1
sbs(I3
I7
tp43
g0
(g10
g2
Ntp44
Rp45
(dp46
g14
I12
sg15
F-0.683179594098776
sg16
I01
sg17
I7
sg18
I3
sbs(I5
I8
tp47
g0
(g10
g2
Ntp48
Rp49
(dp50
g14
I21
sg15
F0.8225481184136726
sg16
I01
sg17
I8
sg18
I5
sbs(I4
I9
tp51
g0
(g10
g2
Ntp52
Rp53
(dp54
g14
I18
sg15
F-5.0
sg16
I01
sg17
I9
sg18
I4
sbs(I2
I9
tp55
g0
(g10
g2
Ntp56
Rp57
(dp58
g14
I10
sg15
F-2.317810959297894
sg16
I01
sg17
I9
sg18
I2
sbs(I7
I6
tp59
g0
(g10
g2
Ntp60
Rp61
(dp62
g14
I24
sg15
F0.32792650171080495
sg16
I01
sg17
I6
sg18
I7
sbs(I3
I6
tp63
g0
(g10
g2
Ntp64
Rp65
(dp66
g14
I15
sg15
F4.498674977108635
sg16
I01
sg17
I6
sg18
I3
sbs(I8
I6
tp67
g0
(g10
g2
Ntp68
Rp69
(dp70
g14
I25
sg15
F1.3835524191410922
sg16
I01
sg17
I6
sg18
I8
sbs(I10
I9
tp71
g0
(g10
g2
Ntp72
Rp73
(dp74
g14
I28
sg15
F2.585281951830973
sg16
I01
sg17
I9
sg18
I10
sbs(I2
I6
tp75
g0
(g10
g2
Ntp76
Rp77
(dp78
g14
I11
sg15
F-0.017143280348832557
sg16
I01
sg17
I6
sg18
I2
sbs(I3
I9
tp79
g0
(g10
g2
Ntp80
Rp81
(dp82
g14
I14
sg15
F0.6078669289152494
sg16
I01
sg17
I9
sg18
I3
sbs(I1
I9
tp83
g0
(g10
g2
Ntp84
Rp85
(dp86
g14
I6
sg15
F-5.0
sg16
I01
sg17
I9
sg18
I1
sbs(I0
I8
tp87
g0
(g10
g2
Ntp88
Rp89
(dp90
g14
I1
sg15
F0.2985336437073621
sg16
I01
sg17
I8
sg18
I0
sbs(I9
I6
tp91
g0
(g10
g2
Ntp92
Rp93
(dp94
g14
I26
sg15
F-2.947132362286247
sg16
I01
sg17
I6
sg18
I9
sbs(I4
I11
tp95
g0
(g10
g2
Ntp96
Rp97
(dp98
g14
I48
sg15
F1.4777433009668994
sg16
I01
sg17
I11
sg18
I4
sbs(I2
I7
tp99
g0
(g10
g2
Ntp100
Rp101
(dp102
g14
I8
sg15
F-1.4933699830557279
sg16
I00
sg17
I7
sg18
I2
sbs(I5
I10
tp103
g0
(g10
g2
Ntp104
Rp105
(dp106
g14
I27
sg15
F-1.7680393851287546
sg16
I01
sg17
I10
sg18
I5
sbs(I4
I6
tp107
g0
(g10
g2
Ntp108
Rp109
(dp110
g14
I19
sg15
F0.00010227496841486161
sg16
I00
sg17
I6
sg18
I4
sbs(I5
I7
tp111
g0
(g10
g2
Ntp112
Rp113
(dp114
g14
I20
sg15
F-0.010258061607611627
sg16
I01
sg17
I7
sg18
I5
sbs(I3
I8
tp115
g0
(g10
g2
Ntp116
Rp117
(dp118
g14
I13
sg15
F-0.486713743456136
sg16
I01
sg17
I8
sg18
I3
sbs(I0
I6
tp119
g0
(g10
g2
Ntp120
Rp121
(dp122
g14
I3
sg15
F-0.3804041405284628
sg16
I00
sg17
I6
sg18
I0
sbs(I1
I8
tp123
g0
(g10
g2
Ntp124
Rp125
(dp126
g14
I5
sg15
F5.0
sg16
I01
sg17
I8
sg18
I1
sbs(I1
I7
tp127
g0
(g10
g2
Ntp128
Rp129
(dp130
g14
I4
sg15
F2.57924144724783
sg16
I01
sg17
I7
sg18
I1
sbs(I0
I9
tp131
g0
(g10
g2
Ntp132
Rp133
(dp134
g14
I2
sg15
F5.0
sg16
I01
sg17
I9
sg18
I0
sbs(I11
I6
tp135
g0
(g10
g2
Ntp136
Rp137
(dp138
g14
I38
sg15
F-1.1760972286337492
sg16
I01
sg17
I6
sg18
I11
sbssS'parent1_id'
p139
I83
sS'num_inputs'
p140
I6
sS'node_genes'
p141
(dp142
I0
g0
(cneat.genes
NodeGene
p143
g2
Ntp144
Rp145
(dp146
S'activation_type'
p147
S'sigmoid'
p148
sS'bias'
p149
F0.0
sS'type'
p150
S'INPUT'
p151
sS'ID'
p152
I0
sS'response'
p153
F4.924273
sbsI1
g0
(g143
g2
Ntp154
Rp155
(dp156
g147
g148
sg149
F0.0
sg150
g151
sg152
I1
sg153
F4.924273
sbsI2
g0
(g143
g2
Ntp157
Rp158
(dp159
g147
g148
sg149
F0.0
sg150
g151
sg152
I2
sg153
F4.924273
sbsI3
g0
(g143
g2
Ntp160
Rp161
(dp162
g147
g148
sg149
F0.0
sg150
g151
sg152
I3
sg153
F4.924273
sbsI4
g0
(g143
g2
Ntp163
Rp164
(dp165
g147
g148
sg149
F0.0
sg150
g151
sg152
I4
sg153
F4.924273
sbsI5
g0
(g143
g2
Ntp166
Rp167
(dp168
g147
g148
sg149
F0.0
sg150
g151
sg152
I5
sg153
F4.924273
sbsI6
g0
(g143
g2
Ntp169
Rp170
(dp171
g147
S'tanh'
p172
sg149
F0.0
sg150
S'OUTPUT'
p173
sg152
I6
sg153
F4.813452865986839
sbsI7
g0
(g143
g2
Ntp174
Rp175
(dp176
g147
g172
sg149
F1.4106354999451682
sg150
S'HIDDEN'
p177
sg152
I7
sg153
F4.942473852067942
sbsI8
g0
(g143
g2
Ntp178
Rp179
(dp180
g147
g172
sg149
F-1.089241626081795
sg150
g177
sg152
I8
sg153
F4.9227924867601525
sbsI9
g0
(g143
g2
Ntp181
Rp182
(dp183
g147
g172
sg149
F0.0
sg150
g177
sg152
I9
sg153
F4.796611188094865
sbsI10
g0
(g143
g2
Ntp184
Rp185
(dp186
g147
g172
sg149
F-1.335098943741498
sg150
g177
sg152
I10
sg153
F4.629480943866643
sbsI11
g0
(g143
g2
Ntp187
Rp188
(dp189
g147
g172
sg149
F-0.6774591119526794
sg150
g177
sg152
I11
sg153
F4.924273
sbssS'node_order'
p190
(lp191
I7
aI11
aI10
aI8
aI9
asS'num_outputs'
p192
I1
sS'fitness'
p193
F-0.86
sS'parent2_id'
p194
I100
sS'config'
p195
g0
(cneat.config
Config
p196
g2
Ntp197
Rp198
(dp199
S'weight_stdev'
p200
F0.9
sS'disjoint_coefficient'
p201
F1.0
sS'prob_delete_node'
p202
F0.05
sS'output_nodes'
p203
I1
sS'checkpoint_generation'
p204
NsS'weight_mutation_power'
p205
F1.0
sS'excess_coefficient'
p206
F1.0
sS'compatibility_threshold'
p207
F3.0
sS'pop_size'
p208
I10
sS'weight_coefficient'
p209
F0.5
sS'elitism'
p210
I2
sS'feedforward'
p211
I01
sS'prob_add_node'
p212
F0.2
sS'genotype'
p213
g1
sS'prob_mutate_activation'
p214
F0.0
sS'conn_gene_type'
p215
g10
sS'connection_fraction'
p216
NsS'activation_functions'
p217
(lp218
g172
asS'response_mutation_power'
p219
F0.1
sS'max_stagnation'
p220
I20
sS'prob_add_conn'
p221
F0.25
sS'survival_threshold'
p222
F0.4
sS'prob_mutate_bias'
p223
F0.1
sS'node_gene_type'
p224
g143
sS'initial_connection'
p225
S'fully_connected'
p226
sS'input_nodes'
p227
I6
sS'prob_replace_weight'
p228
F0.1
sS'diversity_type'
p229
cneat.diversity
ExplicitFitnessSharing
p230
sS'hidden_nodes'
p231
I3
sS'report'
p232
I01
sS'prob_mutate_response'
p233
F0.2
sS'max_weight'
p234
F5.0
sS'min_weight'
p235
F-5.0
sS'prob_toggle_link'
p236
F0.01
sS'save_best'
p237
I00
sS'max_fitness_threshold'
p238
F59999.0
sS'bias_mutation_power'
p239
F1.0
sS'prob_delete_conn'
p240
F0.05
sS'reset_on_extinction'
p241
I01
sS'checkpoint_interval'
p242
NsS'prob_mutate_weight'
p243
F0.8
sbsg152
I107
sb.