ccopy_reg
_reconstructor
p0
(cneat.genome
FFGenome
p1
c__builtin__
object
p2
Ntp3
Rp4
(dp5
S'species_id'
p6
I1
sS'conn_genes'
p7
(dp8
(I5
I9
tp9
g0
(cneat.genes
ConnectionGene
p10
g2
Ntp11
Rp12
(dp13
S'_ConnectionGene__innov_number'
p14
I27
sS'weight'
p15
F1.1417698953031312
sS'enabled'
p16
I01
sS'out_node_id'
p17
I9
sS'in_node_id'
p18
I5
sbs(I4
I7
tp19
g0
(g10
g2
Ntp20
Rp21
(dp22
g14
I20
sg15
F1.137680976540306
sg16
I01
sg17
I7
sg18
I4
sbs(I4
I8
tp23
g0
(g10
g2
Ntp24
Rp25
(dp26
g14
I21
sg15
F-3.5070325051045215
sg16
I01
sg17
I8
sg18
I4
sbs(I5
I6
tp27
g0
(g10
g2
Ntp28
Rp29
(dp30
g14
I29
sg15
F1.1533156587041646
sg16
I01
sg17
I6
sg18
I5
sbs(I2
I8
tp31
g0
(g10
g2
Ntp32
Rp33
(dp34
g14
I11
sg15
F0.9507677288520054
sg16
I01
sg17
I8
sg18
I2
sbs(I10
I6
tp35
g0
(g10
g2
Ntp36
Rp37
(dp38
g14
I33
sg15
F-0.6726177810950971
sg16
I01
sg17
I6
sg18
I10
sbs(I0
I7
tp39
g0
(g10
g2
Ntp40
Rp41
(dp42
g14
I0
sg15
F0.8197451154731605
sg16
I01
sg17
I7
sg18
I0
sbs(I1
I6
tp43
g0
(g10
g2
Ntp44
Rp45
(dp46
g14
I9
sg15
F0.6922797557756863
sg16
I01
sg17
I6
sg18
I1
sbs(I0
I10
tp47
g0
(g10
g2
Ntp48
Rp49
(dp50
g14
I3
sg15
F-2.515545424218687
sg16
I01
sg17
I10
sg18
I0
sbs(I3
I7
tp51
g0
(g10
g2
Ntp52
Rp53
(dp54
g14
I15
sg15
F-1.253606016902389
sg16
I01
sg17
I7
sg18
I3
sbs(I5
I8
tp55
g0
(g10
g2
Ntp56
Rp57
(dp58
g14
I26
sg15
F-0.2035524918479037
sg16
I01
sg17
I8
sg18
I5
sbs(I4
I9
tp59
g0
(g10
g2
Ntp60
Rp61
(dp62
g14
I22
sg15
F-1.3066270762999772
sg16
I01
sg17
I9
sg18
I4
sbs(I2
I9
tp63
g0
(g10
g2
Ntp64
Rp65
(dp66
g14
I12
sg15
F3.891910344867142
sg16
I01
sg17
I9
sg18
I2
sbs(I3
I10
tp67
g0
(g10
g2
Ntp68
Rp69
(dp70
g14
I18
sg15
F-0.01898604471238108
sg16
I01
sg17
I10
sg18
I3
sbs(I3
I6
tp71
g0
(g10
g2
Ntp72
Rp73
(dp74
g14
I19
sg15
F0.04860182416679448
sg16
I01
sg17
I6
sg18
I3
sbs(I1
I10
tp75
g0
(g10
g2
Ntp76
Rp77
(dp78
g14
I8
sg15
F0.767418473322405
sg16
I01
sg17
I10
sg18
I1
sbs(I8
I6
tp79
g0
(g10
g2
Ntp80
Rp81
(dp82
g14
I31
sg15
F1.0870941174803965
sg16
I01
sg17
I6
sg18
I8
sbs(I4
I10
tp83
g0
(g10
g2
Ntp84
Rp85
(dp86
g14
I23
sg15
F1.549548914876313
sg16
I01
sg17
I10
sg18
I4
sbs(I2
I6
tp87
g0
(g10
g2
Ntp88
Rp89
(dp90
g14
I14
sg15
F-1.9766039454072661
sg16
I01
sg17
I6
sg18
I2
sbs(I2
I10
tp91
g0
(g10
g2
Ntp92
Rp93
(dp94
g14
I13
sg15
F-0.4092568777088791
sg16
I01
sg17
I10
sg18
I2
sbs(I3
I9
tp95
g0
(g10
g2
Ntp96
Rp97
(dp98
g14
I17
sg15
F-0.9587697923862678
sg16
I01
sg17
I9
sg18
I3
sbs(I1
I9
tp99
g0
(g10
g2
Ntp100
Rp101
(dp102
g14
I7
sg15
F-0.9816807110291497
sg16
I01
sg17
I9
sg18
I1
sbs(I0
I8
tp103
g0
(g10
g2
Ntp104
Rp105
(dp106
g14
I1
sg15
F0.4254259421845593
sg16
I01
sg17
I8
sg18
I0
sbs(I9
I6
tp107
g0
(g10
g2
Ntp108
Rp109
(dp110
g14
I32
sg15
F-0.025158957119258585
sg16
I01
sg17
I6
sg18
I9
sbs(I2
I7
tp111
g0
(g10
g2
Ntp112
Rp113
(dp114
g14
I10
sg15
F-1.4112689193074148
sg16
I01
sg17
I7
sg18
I2
sbs(I5
I10
tp115
g0
(g10
g2
Ntp116
Rp117
(dp118
g14
I28
sg15
F1.9024413128723665
sg16
I01
sg17
I10
sg18
I5
sbs(I4
I6
tp119
g0
(g10
g2
Ntp120
Rp121
(dp122
g14
I24
sg15
F0.29946562018477807
sg16
I01
sg17
I6
sg18
I4
sbs(I5
I7
tp123
g0
(g10
g2
Ntp124
Rp125
(dp126
g14
I25
sg15
F0.26497507888586747
sg16
I01
sg17
I7
sg18
I5
sbs(I3
I8
tp127
g0
(g10
g2
Ntp128
Rp129
(dp130
g14
I16
sg15
F-1.8697622833875214
sg16
I01
sg17
I8
sg18
I3
sbs(I0
I6
tp131
g0
(g10
g2
Ntp132
Rp133
(dp134
g14
I4
sg15
F1.7698301897145174
sg16
I01
sg17
I6
sg18
I0
sbs(I1
I8
tp135
g0
(g10
g2
Ntp136
Rp137
(dp138
g14
I6
sg15
F2.085385754011929
sg16
I01
sg17
I8
sg18
I1
sbs(I1
I7
tp139
g0
(g10
g2
Ntp140
Rp141
(dp142
g14
I5
sg15
F-1.5876880660792703
sg16
I01
sg17
I7
sg18
I1
sbs(I0
I9
tp143
g0
(g10
g2
Ntp144
Rp145
(dp146
g14
I2
sg15
F-2.893426088170166
sg16
I01
sg17
I9
sg18
I0
sbs(I7
I6
tp147
g0
(g10
g2
Ntp148
Rp149
(dp150
g14
I30
sg15
F0.014136849522505433
sg16
I01
sg17
I6
sg18
I7
sbssS'parent1_id'
p151
I37
sS'num_inputs'
p152
I6
sS'node_genes'
p153
(dp154
I0
g0
(cneat.genes
NodeGene
p155
g2
Ntp156
Rp157
(dp158
S'activation_type'
p159
S'sigmoid'
p160
sS'bias'
p161
F0.0
sS'type'
p162
S'INPUT'
p163
sS'ID'
p164
I0
sS'response'
p165
F4.924273
sbsI1
g0
(g155
g2
Ntp166
Rp167
(dp168
g159
g160
sg161
F0.0
sg162
g163
sg164
I1
sg165
F4.924273
sbsI2
g0
(g155
g2
Ntp169
Rp170
(dp171
g159
g160
sg161
F0.0
sg162
g163
sg164
I2
sg165
F4.924273
sbsI3
g0
(g155
g2
Ntp172
Rp173
(dp174
g159
g160
sg161
F0.0
sg162
g163
sg164
I3
sg165
F4.924273
sbsI4
g0
(g155
g2
Ntp175
Rp176
(dp177
g159
g160
sg161
F0.0
sg162
g163
sg164
I4
sg165
F4.924273
sbsI5
g0
(g155
g2
Ntp178
Rp179
(dp180
g159
g160
sg161
F0.0
sg162
g163
sg164
I5
sg165
F4.924273
sbsI6
g0
(g155
g2
Ntp181
Rp182
(dp183
g159
S'tanh'
p184
sg161
F0.0
sg162
S'OUTPUT'
p185
sg164
I6
sg165
F4.924273
sbsI7
g0
(g155
g2
Ntp186
Rp187
(dp188
g159
g184
sg161
F0.0
sg162
S'HIDDEN'
p189
sg164
I7
sg165
F4.924273
sbsI8
g0
(g155
g2
Ntp190
Rp191
(dp192
g159
g184
sg161
F0.0
sg162
g189
sg164
I8
sg165
F4.924273
sbsI9
g0
(g155
g2
Ntp193
Rp194
(dp195
g159
g184
sg161
F0.0
sg162
g189
sg164
I9
sg165
F4.924273
sbsI10
g0
(g155
g2
Ntp196
Rp197
(dp198
g159
g184
sg161
F0.0
sg162
g189
sg164
I10
sg165
F4.8578514349143225
sbssS'node_order'
p199
(lp200
I7
aI8
aI9
aI10
asS'num_outputs'
p201
I1
sS'fitness'
p202
F-14.183333333333335
sS'parent2_id'
p203
I35
sS'config'
p204
g0
(cneat.config
Config
p205
g2
Ntp206
Rp207
(dp208
S'weight_stdev'
p209
F0.9
sS'disjoint_coefficient'
p210
F1.0
sS'prob_delete_node'
p211
F0.05
sS'output_nodes'
p212
I1
sS'checkpoint_generation'
p213
NsS'weight_mutation_power'
p214
F1.0
sS'excess_coefficient'
p215
F1.0
sS'compatibility_threshold'
p216
F3.0
sS'pop_size'
p217
I20
sS'weight_coefficient'
p218
F0.5
sS'elitism'
p219
I2
sS'feedforward'
p220
I01
sS'prob_add_node'
p221
F0.1
sS'genotype'
p222
g1
sS'prob_mutate_activation'
p223
F0.0
sS'conn_gene_type'
p224
g10
sS'connection_fraction'
p225
NsS'activation_functions'
p226
(lp227
g184
asS'response_mutation_power'
p228
F0.1
sS'max_stagnation'
p229
I20
sS'prob_add_conn'
p230
F0.15
sS'survival_threshold'
p231
F0.5
sS'prob_mutate_bias'
p232
F0.1
sS'node_gene_type'
p233
g155
sS'initial_connection'
p234
S'fully_connected'
p235
sS'input_nodes'
p236
I6
sS'prob_replace_weight'
p237
F0.1
sS'diversity_type'
p238
cneat.diversity
ExplicitFitnessSharing
p239
sS'hidden_nodes'
p240
I4
sS'report'
p241
I01
sS'prob_mutate_response'
p242
F0.2
sS'max_weight'
p243
F30.0
sS'min_weight'
p244
F-30.0
sS'prob_toggle_link'
p245
F0.01
sS'save_best'
p246
I00
sS'max_fitness_threshold'
p247
F59999.0
sS'bias_mutation_power'
p248
F1.0
sS'prob_delete_conn'
p249
F0.05
sS'reset_on_extinction'
p250
I01
sS'checkpoint_interval'
p251
NsS'prob_mutate_weight'
p252
F0.8
sbsg164
I53
sb.