ccopy_reg
_reconstructor
p0
(cneat.genome
FFGenome
p1
c__builtin__
object
p2
Ntp3
Rp4
(dp5
S'species_id'
p6
I1
sS'conn_genes'
p7
(dp8
(I4
I7
tp9
g0
(cneat.genes
ConnectionGene
p10
g2
Ntp11
Rp12
(dp13
S'_ConnectionGene__innov_number'
p14
I20
sS'weight'
p15
F0.5041710851148963
sS'enabled'
p16
I01
sS'out_node_id'
p17
I7
sS'in_node_id'
p18
I4
sbs(I4
I8
tp19
g0
(g10
g2
Ntp20
Rp21
(dp22
g14
I21
sg15
F-4.63411183861141
sg16
I01
sg17
I8
sg18
I4
sbs(I5
I6
tp23
g0
(g10
g2
Ntp24
Rp25
(dp26
g14
I29
sg15
F-5.1806554001774145
sg16
I01
sg17
I6
sg18
I5
sbs(I2
I8
tp27
g0
(g10
g2
Ntp28
Rp29
(dp30
g14
I11
sg15
F-0.5486968523964529
sg16
I01
sg17
I8
sg18
I2
sbs(I10
I6
tp31
g0
(g10
g2
Ntp32
Rp33
(dp34
g14
I33
sg15
F2.0131726532350687
sg16
I01
sg17
I6
sg18
I10
sbs(I0
I7
tp35
g0
(g10
g2
Ntp36
Rp37
(dp38
g14
I0
sg15
F3.9834438350913293
sg16
I01
sg17
I7
sg18
I0
sbs(I1
I6
tp39
g0
(g10
g2
Ntp40
Rp41
(dp42
g14
I9
sg15
F2.1484650131559335
sg16
I00
sg17
I6
sg18
I1
sbs(I0
I10
tp43
g0
(g10
g2
Ntp44
Rp45
(dp46
g14
I3
sg15
F1.3106186889193774
sg16
I01
sg17
I10
sg18
I0
sbs(I3
I7
tp47
g0
(g10
g2
Ntp48
Rp49
(dp50
g14
I15
sg15
F-2.3450980116348337
sg16
I01
sg17
I7
sg18
I3
sbs(I5
I8
tp51
g0
(g10
g2
Ntp52
Rp53
(dp54
g14
I26
sg15
F5.099435411306908
sg16
I01
sg17
I8
sg18
I5
sbs(I3
I10
tp55
g0
(g10
g2
Ntp56
Rp57
(dp58
g14
I18
sg15
F1.64900764239994
sg16
I01
sg17
I10
sg18
I3
sbs(I3
I6
tp59
g0
(g10
g2
Ntp60
Rp61
(dp62
g14
I19
sg15
F5.013910905294091
sg16
I01
sg17
I6
sg18
I3
sbs(I1
I10
tp63
g0
(g10
g2
Ntp64
Rp65
(dp66
g14
I8
sg15
F-4.764055102570834
sg16
I00
sg17
I10
sg18
I1
sbs(I8
I6
tp67
g0
(g10
g2
Ntp68
Rp69
(dp70
g14
I31
sg15
F1.801911868081159
sg16
I01
sg17
I6
sg18
I8
sbs(I4
I10
tp71
g0
(g10
g2
Ntp72
Rp73
(dp74
g14
I23
sg15
F-0.22149560011450314
sg16
I01
sg17
I10
sg18
I4
sbs(I2
I6
tp75
g0
(g10
g2
Ntp76
Rp77
(dp78
g14
I14
sg15
F-0.04105858965010589
sg16
I01
sg17
I6
sg18
I2
sbs(I2
I10
tp79
g0
(g10
g2
Ntp80
Rp81
(dp82
g14
I13
sg15
F-1.082131196295971
sg16
I01
sg17
I10
sg18
I2
sbs(I0
I8
tp83
g0
(g10
g2
Ntp84
Rp85
(dp86
g14
I1
sg15
F10.074762420379312
sg16
I01
sg17
I8
sg18
I0
sbs(I2
I7
tp87
g0
(g10
g2
Ntp88
Rp89
(dp90
g14
I10
sg15
F-3.857936732821054
sg16
I01
sg17
I7
sg18
I2
sbs(I5
I10
tp91
g0
(g10
g2
Ntp92
Rp93
(dp94
g14
I28
sg15
F0.555151888734727
sg16
I01
sg17
I10
sg18
I5
sbs(I4
I6
tp95
g0
(g10
g2
Ntp96
Rp97
(dp98
g14
I24
sg15
F-5.022931037149977
sg16
I00
sg17
I6
sg18
I4
sbs(I5
I7
tp99
g0
(g10
g2
Ntp100
Rp101
(dp102
g14
I25
sg15
F0.4528074982818334
sg16
I00
sg17
I7
sg18
I5
sbs(I3
I8
tp103
g0
(g10
g2
Ntp104
Rp105
(dp106
g14
I16
sg15
F-3.2680975388326665
sg16
I01
sg17
I8
sg18
I3
sbs(I0
I6
tp107
g0
(g10
g2
Ntp108
Rp109
(dp110
g14
I4
sg15
F3.106450513776659
sg16
I00
sg17
I6
sg18
I0
sbs(I1
I8
tp111
g0
(g10
g2
Ntp112
Rp113
(dp114
g14
I6
sg15
F-1.8952676783575688
sg16
I01
sg17
I8
sg18
I1
sbs(I1
I7
tp115
g0
(g10
g2
Ntp116
Rp117
(dp118
g14
I5
sg15
F-1.4677248015410271
sg16
I01
sg17
I7
sg18
I1
sbs(I7
I6
tp119
g0
(g10
g2
Ntp120
Rp121
(dp122
g14
I30
sg15
F0.5454268298242767
sg16
I01
sg17
I6
sg18
I7
sbssS'parent1_id'
p123
I295
sS'num_inputs'
p124
I6
sS'node_genes'
p125
(dp126
I0
g0
(cneat.genes
NodeGene
p127
g2
Ntp128
Rp129
(dp130
S'activation_type'
p131
S'sigmoid'
p132
sS'bias'
p133
F0.0
sS'type'
p134
S'INPUT'
p135
sS'ID'
p136
I0
sS'response'
p137
F4.924273
sbsI1
g0
(g127
g2
Ntp138
Rp139
(dp140
g131
g132
sg133
F0.0
sg134
g135
sg136
I1
sg137
F4.924273
sbsI2
g0
(g127
g2
Ntp141
Rp142
(dp143
g131
g132
sg133
F0.0
sg134
g135
sg136
I2
sg137
F4.924273
sbsI3
g0
(g127
g2
Ntp144
Rp145
(dp146
g131
g132
sg133
F0.0
sg134
g135
sg136
I3
sg137
F4.924273
sbsI4
g0
(g127
g2
Ntp147
Rp148
(dp149
g131
g132
sg133
F0.0
sg134
g135
sg136
I4
sg137
F4.924273
sbsI5
g0
(g127
g2
Ntp150
Rp151
(dp152
g131
g132
sg133
F0.0
sg134
g135
sg136
I5
sg137
F4.924273
sbsI6
g0
(g127
g2
Ntp153
Rp154
(dp155
g131
S'tanh'
p156
sg133
F0.6665386175394665
sg134
S'OUTPUT'
p157
sg136
I6
sg137
F5.1356396106076
sbsI7
g0
(g127
g2
Ntp158
Rp159
(dp160
g131
g156
sg133
F-0.4544645806323288
sg134
S'HIDDEN'
p161
sg136
I7
sg137
F4.66688804491025
sbsI8
g0
(g127
g2
Ntp162
Rp163
(dp164
g131
g156
sg133
F0.9765850738484497
sg134
g161
sg136
I8
sg137
F4.959584803021297
sbsI10
g0
(g127
g2
Ntp165
Rp166
(dp167
g131
g156
sg133
F0.0
sg134
g161
sg136
I10
sg137
F4.605137532246985
sbssS'node_order'
p168
(lp169
I7
aI8
aI10
asS'num_outputs'
p170
I1
sS'fitness'
p171
F7.733333333333333
sS'parent2_id'
p172
I321
sS'config'
p173
g0
(cneat.config
Config
p174
g2
Ntp175
Rp176
(dp177
S'weight_stdev'
p178
F0.9
sS'disjoint_coefficient'
p179
F1.0
sS'prob_delete_node'
p180
F0.05
sS'output_nodes'
p181
I1
sS'checkpoint_generation'
p182
NsS'weight_mutation_power'
p183
F1.0
sS'excess_coefficient'
p184
F1.0
sS'compatibility_threshold'
p185
F3.0
sS'pop_size'
p186
I20
sS'weight_coefficient'
p187
F0.5
sS'elitism'
p188
I2
sS'feedforward'
p189
I01
sS'prob_add_node'
p190
F0.1
sS'genotype'
p191
g1
sS'prob_mutate_activation'
p192
F0.0
sS'conn_gene_type'
p193
g10
sS'connection_fraction'
p194
NsS'activation_functions'
p195
(lp196
g156
asS'response_mutation_power'
p197
F0.1
sS'max_stagnation'
p198
I20
sS'prob_add_conn'
p199
F0.15
sS'survival_threshold'
p200
F0.5
sS'prob_mutate_bias'
p201
F0.1
sS'node_gene_type'
p202
g127
sS'initial_connection'
p203
S'fully_connected'
p204
sS'input_nodes'
p205
I6
sS'prob_replace_weight'
p206
F0.1
sS'diversity_type'
p207
cneat.diversity
ExplicitFitnessSharing
p208
sS'hidden_nodes'
p209
I4
sS'report'
p210
I01
sS'prob_mutate_response'
p211
F0.2
sS'max_weight'
p212
F30.0
sS'min_weight'
p213
F-30.0
sS'prob_toggle_link'
p214
F0.01
sS'save_best'
p215
I00
sS'max_fitness_threshold'
p216
F59999.0
sS'bias_mutation_power'
p217
F1.0
sS'prob_delete_conn'
p218
F0.05
sS'reset_on_extinction'
p219
I01
sS'checkpoint_interval'
p220
NsS'prob_mutate_weight'
p221
F0.8
sbsg136
I337
sb.