ccopy_reg
_reconstructor
p0
(cneat.genome
FFGenome
p1
c__builtin__
object
p2
Ntp3
Rp4
(dp5
S'species_id'
p6
I1
sS'conn_genes'
p7
(dp8
(I5
I9
tp9
g0
(cneat.genes
ConnectionGene
p10
g2
Ntp11
Rp12
(dp13
S'_ConnectionGene__innov_number'
p14
I20
sS'weight'
p15
F-0.19630566389687504
sS'enabled'
p16
I01
sS'out_node_id'
p17
I9
sS'in_node_id'
p18
I5
sbs(I6
I9
tp19
g0
(g10
g2
Ntp20
Rp21
(dp22
g14
I24
sg15
F3.327226979198958
sg16
I01
sg17
I9
sg18
I6
sbs(I4
I8
tp23
g0
(g10
g2
Ntp24
Rp25
(dp26
g14
I19
sg15
F-3.2768586919568774
sg16
I00
sg17
I8
sg18
I4
sbs(I2
I8
tp27
g0
(g10
g2
Ntp28
Rp29
(dp30
g14
I11
sg15
F-2.3956288849396143
sg16
I00
sg17
I8
sg18
I2
sbs(I9
I8
tp31
g0
(g10
g2
Ntp32
Rp33
(dp34
g14
I32
sg15
F1.7648506712679473
sg16
I01
sg17
I8
sg18
I9
sbs(I3
I11
tp35
g0
(g10
g2
Ntp36
Rp37
(dp38
g14
I14
sg15
F-0.26756925758734595
sg16
I01
sg17
I11
sg18
I3
sbs(I15
I8
tp39
g0
(g10
g2
Ntp40
Rp41
(dp42
g14
I97
sg15
F2.501212179276889
sg16
I00
sg17
I8
sg18
I15
sbs(I0
I10
tp43
g0
(g10
g2
Ntp44
Rp45
(dp46
g14
I1
sg15
F3.669170479749809
sg16
I01
sg17
I10
sg18
I0
sbs(I7
I11
tp47
g0
(g10
g2
Ntp48
Rp49
(dp50
g14
I30
sg15
F-4.713945410333077
sg16
I00
sg17
I11
sg18
I7
sbs(I1
I11
tp51
g0
(g10
g2
Ntp52
Rp53
(dp54
g14
I6
sg15
F-3.8045580256699423
sg16
I01
sg17
I11
sg18
I1
sbs(I5
I8
tp55
g0
(g10
g2
Ntp56
Rp57
(dp58
g14
I23
sg15
F1.3574653998093649
sg16
I01
sg17
I8
sg18
I5
sbs(I6
I14
tp59
g0
(g10
g2
Ntp60
Rp61
(dp62
g14
I73
sg15
F-1.0790822065557917
sg16
I00
sg17
I14
sg18
I6
sbs(I10
I8
tp63
g0
(g10
g2
Ntp64
Rp65
(dp66
g14
I33
sg15
F1.677790882778448
sg16
I01
sg17
I8
sg18
I10
sbs(I4
I9
tp67
g0
(g10
g2
Ntp68
Rp69
(dp70
g14
I16
sg15
F-4.950182495260119
sg16
I01
sg17
I9
sg18
I4
sbs(I2
I9
tp71
g0
(g10
g2
Ntp72
Rp73
(dp74
g14
I8
sg15
F0.2879555027835714
sg16
I01
sg17
I9
sg18
I2
sbs(I3
I10
tp75
g0
(g10
g2
Ntp76
Rp77
(dp78
g14
I13
sg15
F1.5365726172696554
sg16
I01
sg17
I10
sg18
I3
sbs(I6
I10
tp79
g0
(g10
g2
Ntp80
Rp81
(dp82
g14
I25
sg15
F0.8444283889056956
sg16
I01
sg17
I10
sg18
I6
sbs(I4
I13
tp83
g0
(g10
g2
Ntp84
Rp85
(dp86
g14
I66
sg15
F-2.6969511096525425
sg16
I01
sg17
I13
sg18
I4
sbs(I0
I11
tp87
g0
(g10
g2
Ntp88
Rp89
(dp90
g14
I2
sg15
F-1.4332361843679708
sg16
I01
sg17
I11
sg18
I0
sbs(I7
I10
tp91
g0
(g10
g2
Ntp92
Rp93
(dp94
g14
I29
sg15
F1.2358066298918908
sg16
I00
sg17
I10
sg18
I7
sbs(I4
I10
tp95
g0
(g10
g2
Ntp96
Rp97
(dp98
g14
I17
sg15
F0.22962954006725522
sg16
I01
sg17
I10
sg18
I4
sbs(I5
I11
tp99
g0
(g10
g2
Ntp100
Rp101
(dp102
g14
I22
sg15
F-2.7191095300965245
sg16
I01
sg17
I11
sg18
I5
sbs(I6
I11
tp103
g0
(g10
g2
Ntp104
Rp105
(dp106
g14
I26
sg15
F5.0
sg16
I01
sg17
I11
sg18
I6
sbs(I2
I10
tp107
g0
(g10
g2
Ntp108
Rp109
(dp110
g14
I9
sg15
F-1.8081384326442773
sg16
I01
sg17
I10
sg18
I2
sbs(I3
I9
tp111
g0
(g10
g2
Ntp112
Rp113
(dp114
g14
I12
sg15
F0.845836969918329
sg16
I01
sg17
I9
sg18
I3
sbs(I1
I9
tp115
g0
(g10
g2
Ntp116
Rp117
(dp118
g14
I4
sg15
F-4.044058923587777
sg16
I00
sg17
I9
sg18
I1
sbs(I5
I10
tp119
g0
(g10
g2
Ntp120
Rp121
(dp122
g14
I21
sg15
F5.0
sg16
I01
sg17
I10
sg18
I5
sbs(I0
I8
tp123
g0
(g10
g2
Ntp124
Rp125
(dp126
g14
I3
sg15
F-0.7586849734844042
sg16
I00
sg17
I8
sg18
I0
sbs(I13
I10
tp127
g0
(g10
g2
Ntp128
Rp129
(dp130
g14
I53
sg15
F0.2198783489622207
sg16
I01
sg17
I10
sg18
I13
sbs(I4
I11
tp131
g0
(g10
g2
Ntp132
Rp133
(dp134
g14
I18
sg15
F-0.31087765277760915
sg16
I01
sg17
I11
sg18
I4
sbs(I12
I15
tp135
g0
(g10
g2
Ntp136
Rp137
(dp138
g14
I131
sg15
F-1.1409999995058113
sg16
I00
sg17
I15
sg18
I12
sbs(I3
I12
tp139
g0
(g10
g2
Ntp140
Rp141
(dp142
g14
I71
sg15
F-5.0
sg16
I00
sg17
I12
sg18
I3
sbs(I6
I8
tp143
g0
(g10
g2
Ntp144
Rp145
(dp146
g14
I27
sg15
F2.4942635778144706
sg16
I00
sg17
I8
sg18
I6
sbs(I1
I12
tp147
g0
(g10
g2
Ntp148
Rp149
(dp150
g14
I58
sg15
F-4.74129219420965
sg16
I00
sg17
I12
sg18
I1
sbs(I11
I8
tp151
g0
(g10
g2
Ntp152
Rp153
(dp154
g14
I34
sg15
F1.568868328972719
sg16
I01
sg17
I8
sg18
I11
sbs(I2
I11
tp155
g0
(g10
g2
Ntp156
Rp157
(dp158
g14
I10
sg15
F-3.6763597859741375
sg16
I01
sg17
I11
sg18
I2
sbs(I3
I8
tp159
g0
(g10
g2
Ntp160
Rp161
(dp162
g14
I15
sg15
F5.0
sg16
I01
sg17
I8
sg18
I3
sbs(I1
I8
tp163
g0
(g10
g2
Ntp164
Rp165
(dp166
g14
I7
sg15
F-4.736235539911141
sg16
I01
sg17
I8
sg18
I1
sbs(I5
I15
tp167
g0
(g10
g2
Ntp168
Rp169
(dp170
g14
I124
sg15
F1.9686938915990622
sg16
I01
sg17
I15
sg18
I5
sbs(I15
I9
tp171
g0
(g10
g2
Ntp172
Rp173
(dp174
g14
I82
sg15
F-0.8341333946905996
sg16
I01
sg17
I9
sg18
I15
sbs(I0
I9
tp175
g0
(g10
g2
Ntp176
Rp177
(dp178
g14
I0
sg15
F-2.343934655236412
sg16
I00
sg17
I9
sg18
I0
sbs(I7
I8
tp179
g0
(g10
g2
Ntp180
Rp181
(dp182
g14
I31
sg15
F1.7972756834396133
sg16
I01
sg17
I8
sg18
I7
sbs(I14
I8
tp183
g0
(g10
g2
Ntp184
Rp185
(dp186
g14
I65
sg15
F-0.8085842757191171
sg16
I00
sg17
I8
sg18
I14
sbssS'parent1_id'
p187
I1103
sS'num_inputs'
p188
I8
sS'node_genes'
p189
(dp190
I0
g0
(cneat.genes
NodeGene
p191
g2
Ntp192
Rp193
(dp194
S'activation_type'
p195
S'sigmoid'
p196
sS'bias'
p197
F0.0
sS'type'
p198
S'INPUT'
p199
sS'ID'
p200
I0
sS'response'
p201
F4.924273
sbsI1
g0
(g191
g2
Ntp202
Rp203
(dp204
g195
g196
sg197
F0.0
sg198
g199
sg200
I1
sg201
F4.924273
sbsI2
g0
(g191
g2
Ntp205
Rp206
(dp207
g195
g196
sg197
F0.0
sg198
g199
sg200
I2
sg201
F4.924273
sbsI3
g0
(g191
g2
Ntp208
Rp209
(dp210
g195
g196
sg197
F0.0
sg198
g199
sg200
I3
sg201
F4.924273
sbsI4
g0
(g191
g2
Ntp211
Rp212
(dp213
g195
g196
sg197
F0.0
sg198
g199
sg200
I4
sg201
F4.924273
sbsI5
g0
(g191
g2
Ntp214
Rp215
(dp216
g195
g196
sg197
F0.0
sg198
g199
sg200
I5
sg201
F4.924273
sbsI6
g0
(g191
g2
Ntp217
Rp218
(dp219
g195
g196
sg197
F0.0
sg198
g199
sg200
I6
sg201
F4.924273
sbsI7
g0
(g191
g2
Ntp220
Rp221
(dp222
g195
g196
sg197
F0.0
sg198
g199
sg200
I7
sg201
F4.924273
sbsI8
g0
(g191
g2
Ntp223
Rp224
(dp225
g195
S'tanh'
p226
sg197
F1.3295926219139955
sg198
S'OUTPUT'
p227
sg200
I8
sg201
F4.9254244718064495
sbsI9
g0
(g191
g2
Ntp228
Rp229
(dp230
g195
g226
sg197
F-0.24727823468842233
sg198
S'HIDDEN'
p231
sg200
I9
sg201
F5.0
sbsI10
g0
(g191
g2
Ntp232
Rp233
(dp234
g195
g226
sg197
F2.933801339445409
sg198
g231
sg200
I10
sg201
F4.9289093039779015
sbsI11
g0
(g191
g2
Ntp235
Rp236
(dp237
g195
g226
sg197
F2.796814366052799
sg198
g231
sg200
I11
sg201
F4.827150606493932
sbsI12
g0
(g191
g2
Ntp238
Rp239
(dp240
g195
g226
sg197
F-0.7331822125461375
sg198
g231
sg200
I12
sg201
F4.617060783484077
sbsI13
g0
(g191
g2
Ntp241
Rp242
(dp243
g195
g226
sg197
F-0.42253519614250434
sg198
g231
sg200
I13
sg201
F4.903072422087477
sbsI14
g0
(g191
g2
Ntp244
Rp245
(dp246
g195
g226
sg197
F-0.7935708884475835
sg198
g231
sg200
I14
sg201
F4.9874195406941615
sbsI15
g0
(g191
g2
Ntp247
Rp248
(dp249
g195
g226
sg197
F1.2477436086902398
sg198
g231
sg200
I15
sg201
F4.924273
sbssS'node_order'
p250
(lp251
I13
aI12
aI15
aI9
aI14
aI10
aI11
asS'num_outputs'
p252
I1
sS'fitness'
p253
F-0.224074074074074
sS'parent2_id'
p254
I1113
sS'config'
p255
g0
(cneat.config
Config
p256
g2
Ntp257
Rp258
(dp259
S'weight_stdev'
p260
F0.9
sS'disjoint_coefficient'
p261
F1.0
sS'prob_delete_node'
p262
F0.05
sS'output_nodes'
p263
I1
sS'checkpoint_generation'
p264
NsS'weight_mutation_power'
p265
F1.0
sS'excess_coefficient'
p266
F1.0
sS'compatibility_threshold'
p267
F3.0
sS'pop_size'
p268
I30
sS'weight_coefficient'
p269
F0.5
sS'elitism'
p270
I2
sS'feedforward'
p271
I01
sS'prob_add_node'
p272
F0.2
sS'genotype'
p273
g1
sS'prob_mutate_activation'
p274
F0.0
sS'conn_gene_type'
p275
g10
sS'connection_fraction'
p276
NsS'activation_functions'
p277
(lp278
g226
asS'response_mutation_power'
p279
F0.1
sS'max_stagnation'
p280
I20
sS'prob_add_conn'
p281
F0.25
sS'survival_threshold'
p282
F0.4
sS'prob_mutate_bias'
p283
F0.1
sS'node_gene_type'
p284
g191
sS'initial_connection'
p285
S'fully_connected'
p286
sS'input_nodes'
p287
I8
sS'prob_replace_weight'
p288
F0.1
sS'diversity_type'
p289
cneat.diversity
ExplicitFitnessSharing
p290
sS'hidden_nodes'
p291
I3
sS'report'
p292
I01
sS'prob_mutate_response'
p293
F0.2
sS'max_weight'
p294
F5.0
sS'min_weight'
p295
F-5.0
sS'prob_toggle_link'
p296
F0.01
sS'save_best'
p297
I00
sS'max_fitness_threshold'
p298
F59999.0
sS'bias_mutation_power'
p299
F1.0
sS'prob_delete_conn'
p300
F0.05
sS'reset_on_extinction'
p301
I01
sS'checkpoint_interval'
p302
NsS'prob_mutate_weight'
p303
F0.8
sbsg200
I1147
sb.