ccopy_reg
_reconstructor
p0
(cneat.genome
FFGenome
p1
c__builtin__
object
p2
Ntp3
Rp4
(dp5
S'species_id'
p6
I2
sS'conn_genes'
p7
(dp8
(I5
I9
tp9
g0
(cneat.genes
ConnectionGene
p10
g2
Ntp11
Rp12
(dp13
S'_ConnectionGene__innov_number'
p14
I20
sS'weight'
p15
F-1.5647839009349371
sS'enabled'
p16
I00
sS'out_node_id'
p17
I9
sS'in_node_id'
p18
I5
sbs(I6
I9
tp19
g0
(g10
g2
Ntp20
Rp21
(dp22
g14
I24
sg15
F0.7932817508441106
sg16
I00
sg17
I9
sg18
I6
sbs(I4
I8
tp23
g0
(g10
g2
Ntp24
Rp25
(dp26
g14
I19
sg15
F-0.4753765413610116
sg16
I00
sg17
I8
sg18
I4
sbs(I2
I8
tp27
g0
(g10
g2
Ntp28
Rp29
(dp30
g14
I11
sg15
F-2.372143319676684
sg16
I00
sg17
I8
sg18
I2
sbs(I9
I8
tp31
g0
(g10
g2
Ntp32
Rp33
(dp34
g14
I32
sg15
F-1.7351690458835927
sg16
I00
sg17
I8
sg18
I9
sbs(I3
I11
tp35
g0
(g10
g2
Ntp36
Rp37
(dp38
g14
I14
sg15
F1.8568354707650054
sg16
I01
sg17
I11
sg18
I3
sbs(I0
I10
tp39
g0
(g10
g2
Ntp40
Rp41
(dp42
g14
I1
sg15
F-4.134637015183877
sg16
I01
sg17
I10
sg18
I0
sbs(I7
I11
tp43
g0
(g10
g2
Ntp44
Rp45
(dp46
g14
I30
sg15
F-5.0
sg16
I01
sg17
I11
sg18
I7
sbs(I1
I11
tp47
g0
(g10
g2
Ntp48
Rp49
(dp50
g14
I6
sg15
F-2.6078024137240123
sg16
I01
sg17
I11
sg18
I1
sbs(I5
I8
tp51
g0
(g10
g2
Ntp52
Rp53
(dp54
g14
I23
sg15
F-0.18907289065898858
sg16
I01
sg17
I8
sg18
I5
sbs(I10
I8
tp55
g0
(g10
g2
Ntp56
Rp57
(dp58
g14
I33
sg15
F0.5471134463174318
sg16
I01
sg17
I8
sg18
I10
sbs(I4
I9
tp59
g0
(g10
g2
Ntp60
Rp61
(dp62
g14
I16
sg15
F4.203993353349394
sg16
I01
sg17
I9
sg18
I4
sbs(I2
I9
tp63
g0
(g10
g2
Ntp64
Rp65
(dp66
g14
I8
sg15
F-3.1163885925356074
sg16
I01
sg17
I9
sg18
I2
sbs(I3
I10
tp67
g0
(g10
g2
Ntp68
Rp69
(dp70
g14
I13
sg15
F-4.874070811047622
sg16
I01
sg17
I10
sg18
I3
sbs(I6
I10
tp71
g0
(g10
g2
Ntp72
Rp73
(dp74
g14
I25
sg15
F3.4352726271822602
sg16
I01
sg17
I10
sg18
I6
sbs(I0
I11
tp75
g0
(g10
g2
Ntp76
Rp77
(dp78
g14
I2
sg15
F-0.5882867635042179
sg16
I01
sg17
I11
sg18
I0
sbs(I7
I10
tp79
g0
(g10
g2
Ntp80
Rp81
(dp82
g14
I29
sg15
F-3.9214471927245445
sg16
I01
sg17
I10
sg18
I7
sbs(I1
I10
tp83
g0
(g10
g2
Ntp84
Rp85
(dp86
g14
I5
sg15
F-0.5094994291984501
sg16
I01
sg17
I10
sg18
I1
sbs(I4
I10
tp87
g0
(g10
g2
Ntp88
Rp89
(dp90
g14
I17
sg15
F0.24566626536062142
sg16
I00
sg17
I10
sg18
I4
sbs(I5
I11
tp91
g0
(g10
g2
Ntp92
Rp93
(dp94
g14
I22
sg15
F-0.4137713644787666
sg16
I01
sg17
I11
sg18
I5
sbs(I6
I11
tp95
g0
(g10
g2
Ntp96
Rp97
(dp98
g14
I26
sg15
F-0.41176300056817017
sg16
I01
sg17
I11
sg18
I6
sbs(I2
I10
tp99
g0
(g10
g2
Ntp100
Rp101
(dp102
g14
I9
sg15
F-1.0091097929946269
sg16
I01
sg17
I10
sg18
I2
sbs(I3
I9
tp103
g0
(g10
g2
Ntp104
Rp105
(dp106
g14
I12
sg15
F-1.876106308199577
sg16
I01
sg17
I9
sg18
I3
sbs(I1
I9
tp107
g0
(g10
g2
Ntp108
Rp109
(dp110
g14
I4
sg15
F-0.30830141151009
sg16
I01
sg17
I9
sg18
I1
sbs(I0
I8
tp111
g0
(g10
g2
Ntp112
Rp113
(dp114
g14
I3
sg15
F1.8977974679812393
sg16
I00
sg17
I8
sg18
I0
sbs(I4
I11
tp115
g0
(g10
g2
Ntp116
Rp117
(dp118
g14
I18
sg15
F1.5420344465603715
sg16
I01
sg17
I11
sg18
I4
sbs(I7
I9
tp119
g0
(g10
g2
Ntp120
Rp121
(dp122
g14
I28
sg15
F0.9061835310695342
sg16
I00
sg17
I9
sg18
I7
sbs(I5
I10
tp123
g0
(g10
g2
Ntp124
Rp125
(dp126
g14
I21
sg15
F-2.6309749780684317
sg16
I01
sg17
I10
sg18
I5
sbs(I11
I8
tp127
g0
(g10
g2
Ntp128
Rp129
(dp130
g14
I34
sg15
F2.61278426827094
sg16
I01
sg17
I8
sg18
I11
sbs(I2
I11
tp131
g0
(g10
g2
Ntp132
Rp133
(dp134
g14
I10
sg15
F-1.9303800260469832
sg16
I01
sg17
I11
sg18
I2
sbs(I3
I8
tp135
g0
(g10
g2
Ntp136
Rp137
(dp138
g14
I15
sg15
F4.0018491670864575
sg16
I01
sg17
I8
sg18
I3
sbs(I1
I8
tp139
g0
(g10
g2
Ntp140
Rp141
(dp142
g14
I7
sg15
F-3.216029020385811
sg16
I01
sg17
I8
sg18
I1
sbs(I0
I9
tp143
g0
(g10
g2
Ntp144
Rp145
(dp146
g14
I0
sg15
F1.7386958209935
sg16
I01
sg17
I9
sg18
I0
sbs(I9
I12
tp147
g0
(g10
g2
Ntp148
Rp149
(dp150
g14
I48
sg15
F2.18383817400777
sg16
I01
sg17
I12
sg18
I9
sbs(I12
I8
tp151
g0
(g10
g2
Ntp152
Rp153
(dp154
g14
I38
sg15
F-2.022751909555324
sg16
I01
sg17
I8
sg18
I12
sbssS'parent1_id'
p155
I1355
sS'num_inputs'
p156
I8
sS'node_genes'
p157
(dp158
I0
g0
(cneat.genes
NodeGene
p159
g2
Ntp160
Rp161
(dp162
S'activation_type'
p163
S'sigmoid'
p164
sS'bias'
p165
F0.0
sS'type'
p166
S'INPUT'
p167
sS'ID'
p168
I0
sS'response'
p169
F4.924273
sbsI1
g0
(g159
g2
Ntp170
Rp171
(dp172
g163
g164
sg165
F0.0
sg166
g167
sg168
I1
sg169
F4.924273
sbsI2
g0
(g159
g2
Ntp173
Rp174
(dp175
g163
g164
sg165
F0.0
sg166
g167
sg168
I2
sg169
F4.924273
sbsI3
g0
(g159
g2
Ntp176
Rp177
(dp178
g163
g164
sg165
F0.0
sg166
g167
sg168
I3
sg169
F4.924273
sbsI4
g0
(g159
g2
Ntp179
Rp180
(dp181
g163
g164
sg165
F0.0
sg166
g167
sg168
I4
sg169
F4.924273
sbsI5
g0
(g159
g2
Ntp182
Rp183
(dp184
g163
g164
sg165
F0.0
sg166
g167
sg168
I5
sg169
F4.924273
sbsI6
g0
(g159
g2
Ntp185
Rp186
(dp187
g163
g164
sg165
F0.0
sg166
g167
sg168
I6
sg169
F4.924273
sbsI7
g0
(g159
g2
Ntp188
Rp189
(dp190
g163
g164
sg165
F0.0
sg166
g167
sg168
I7
sg169
F4.924273
sbsI8
g0
(g159
g2
Ntp191
Rp192
(dp193
g163
S'tanh'
p194
sg165
F-0.9948050370463528
sg166
S'OUTPUT'
p195
sg168
I8
sg169
F4.910681667003562
sbsI9
g0
(g159
g2
Ntp196
Rp197
(dp198
g163
g194
sg165
F0.597754626545147
sg166
S'HIDDEN'
p199
sg168
I9
sg169
F5.0
sbsI10
g0
(g159
g2
Ntp200
Rp201
(dp202
g163
g194
sg165
F-0.3424467827608265
sg166
g199
sg168
I10
sg169
F4.866221919958638
sbsI11
g0
(g159
g2
Ntp203
Rp204
(dp205
g163
g194
sg165
F-0.0376986462385594
sg166
g199
sg168
I11
sg169
F4.9580951111381495
sbsI12
g0
(g159
g2
Ntp206
Rp207
(dp208
g163
g194
sg165
F0.0
sg166
g199
sg168
I12
sg169
F4.646515919286436
sbssS'node_order'
p209
(lp210
I9
aI12
aI10
aI11
asS'num_outputs'
p211
I1
sS'fitness'
p212
F-0.37037037037037024
sS'parent2_id'
p213
I1332
sS'config'
p214
g0
(cneat.config
Config
p215
g2
Ntp216
Rp217
(dp218
S'weight_stdev'
p219
F0.9
sS'disjoint_coefficient'
p220
F1.0
sS'prob_delete_node'
p221
F0.05
sS'output_nodes'
p222
I1
sS'checkpoint_generation'
p223
NsS'weight_mutation_power'
p224
F1.0
sS'excess_coefficient'
p225
F1.0
sS'compatibility_threshold'
p226
F2.0
sS'pop_size'
p227
I30
sS'weight_coefficient'
p228
F0.5
sS'elitism'
p229
I2
sS'feedforward'
p230
I01
sS'prob_add_node'
p231
F0.2
sS'genotype'
p232
g1
sS'prob_mutate_activation'
p233
F0.0
sS'conn_gene_type'
p234
g10
sS'connection_fraction'
p235
NsS'activation_functions'
p236
(lp237
g194
asS'response_mutation_power'
p238
F0.1
sS'max_stagnation'
p239
I20
sS'prob_add_conn'
p240
F0.25
sS'survival_threshold'
p241
F0.4
sS'prob_mutate_bias'
p242
F0.1
sS'node_gene_type'
p243
g159
sS'initial_connection'
p244
S'fully_connected'
p245
sS'input_nodes'
p246
I8
sS'prob_replace_weight'
p247
F0.1
sS'diversity_type'
p248
cneat.diversity
ExplicitFitnessSharing
p249
sS'hidden_nodes'
p250
I3
sS'report'
p251
I01
sS'prob_mutate_response'
p252
F0.2
sS'max_weight'
p253
F5.0
sS'min_weight'
p254
F-5.0
sS'prob_toggle_link'
p255
F0.01
sS'save_best'
p256
I00
sS'max_fitness_threshold'
p257
F59999.0
sS'bias_mutation_power'
p258
F1.0
sS'prob_delete_conn'
p259
F0.05
sS'reset_on_extinction'
p260
I01
sS'checkpoint_interval'
p261
NsS'prob_mutate_weight'
p262
F0.8
sbsg168
I1381
sb.