ccopy_reg
_reconstructor
p0
(cneat.genome
FFGenome
p1
c__builtin__
object
p2
Ntp3
Rp4
(dp5
S'species_id'
p6
I1
sS'conn_genes'
p7
(dp8
(I4
I7
tp9
g0
(cneat.genes
ConnectionGene
p10
g2
Ntp11
Rp12
(dp13
S'_ConnectionGene__innov_number'
p14
I20
sS'weight'
p15
F-2.3391122735675447
sS'enabled'
p16
I01
sS'out_node_id'
p17
I7
sS'in_node_id'
p18
I4
sbs(I4
I8
tp19
g0
(g10
g2
Ntp20
Rp21
(dp22
g14
I21
sg15
F-4.79304753891837
sg16
I01
sg17
I8
sg18
I4
sbs(I5
I6
tp23
g0
(g10
g2
Ntp24
Rp25
(dp26
g14
I29
sg15
F-5.097133045651898
sg16
I01
sg17
I6
sg18
I5
sbs(I2
I8
tp27
g0
(g10
g2
Ntp28
Rp29
(dp30
g14
I11
sg15
F2.890687930313285
sg16
I00
sg17
I8
sg18
I2
sbs(I9
I8
tp31
g0
(g10
g2
Ntp32
Rp33
(dp34
g14
I55
sg15
F3.3815537901861115
sg16
I01
sg17
I8
sg18
I9
sbs(I10
I6
tp35
g0
(g10
g2
Ntp36
Rp37
(dp38
g14
I33
sg15
F1.161346626491159
sg16
I01
sg17
I6
sg18
I10
sbs(I0
I7
tp39
g0
(g10
g2
Ntp40
Rp41
(dp42
g14
I0
sg15
F-1.401689362981018
sg16
I01
sg17
I7
sg18
I0
sbs(I1
I6
tp43
g0
(g10
g2
Ntp44
Rp45
(dp46
g14
I9
sg15
F-0.7864747273512702
sg16
I00
sg17
I6
sg18
I1
sbs(I0
I10
tp47
g0
(g10
g2
Ntp48
Rp49
(dp50
g14
I3
sg15
F0.6021070736605328
sg16
I01
sg17
I10
sg18
I0
sbs(I3
I7
tp51
g0
(g10
g2
Ntp52
Rp53
(dp54
g14
I15
sg15
F0.21571646477930168
sg16
I00
sg17
I7
sg18
I3
sbs(I5
I8
tp55
g0
(g10
g2
Ntp56
Rp57
(dp58
g14
I26
sg15
F1.8230788400143803
sg16
I01
sg17
I8
sg18
I5
sbs(I3
I10
tp59
g0
(g10
g2
Ntp60
Rp61
(dp62
g14
I18
sg15
F1.3416856487977498
sg16
I01
sg17
I10
sg18
I3
sbs(I3
I6
tp63
g0
(g10
g2
Ntp64
Rp65
(dp66
g14
I19
sg15
F5.039196264536967
sg16
I01
sg17
I6
sg18
I3
sbs(I1
I10
tp67
g0
(g10
g2
Ntp68
Rp69
(dp70
g14
I8
sg15
F3.0219493051118937
sg16
I01
sg17
I10
sg18
I1
sbs(I8
I6
tp71
g0
(g10
g2
Ntp72
Rp73
(dp74
g14
I31
sg15
F2.642096552815768
sg16
I01
sg17
I6
sg18
I8
sbs(I4
I10
tp75
g0
(g10
g2
Ntp76
Rp77
(dp78
g14
I23
sg15
F1.8094687590344705
sg16
I01
sg17
I10
sg18
I4
sbs(I2
I6
tp79
g0
(g10
g2
Ntp80
Rp81
(dp82
g14
I14
sg15
F-0.07078889171284741
sg16
I01
sg17
I6
sg18
I2
sbs(I2
I10
tp83
g0
(g10
g2
Ntp84
Rp85
(dp86
g14
I13
sg15
F1.4705579533790534
sg16
I01
sg17
I10
sg18
I2
sbs(I3
I9
tp87
g0
(g10
g2
Ntp88
Rp89
(dp90
g14
I17
sg15
F0.3875035722662693
sg16
I01
sg17
I9
sg18
I3
sbs(I0
I8
tp91
g0
(g10
g2
Ntp92
Rp93
(dp94
g14
I1
sg15
F0.4161366214310071
sg16
I01
sg17
I8
sg18
I0
sbs(I2
I7
tp95
g0
(g10
g2
Ntp96
Rp97
(dp98
g14
I10
sg15
F-1.7525873856979788
sg16
I01
sg17
I7
sg18
I2
sbs(I5
I10
tp99
g0
(g10
g2
Ntp100
Rp101
(dp102
g14
I28
sg15
F1.9036678643016267
sg16
I01
sg17
I10
sg18
I5
sbs(I4
I6
tp103
g0
(g10
g2
Ntp104
Rp105
(dp106
g14
I24
sg15
F-3.3698977900612195
sg16
I01
sg17
I6
sg18
I4
sbs(I5
I7
tp107
g0
(g10
g2
Ntp108
Rp109
(dp110
g14
I25
sg15
F1.1572946171452607
sg16
I00
sg17
I7
sg18
I5
sbs(I3
I8
tp111
g0
(g10
g2
Ntp112
Rp113
(dp114
g14
I16
sg15
F1.9740676514194349
sg16
I00
sg17
I8
sg18
I3
sbs(I0
I6
tp115
g0
(g10
g2
Ntp116
Rp117
(dp118
g14
I4
sg15
F0.8597213393294697
sg16
I00
sg17
I6
sg18
I0
sbs(I1
I8
tp119
g0
(g10
g2
Ntp120
Rp121
(dp122
g14
I6
sg15
F1.0880528242013379
sg16
I01
sg17
I8
sg18
I1
sbs(I1
I7
tp123
g0
(g10
g2
Ntp124
Rp125
(dp126
g14
I5
sg15
F2.068718812719554
sg16
I01
sg17
I7
sg18
I1
sbs(I7
I6
tp127
g0
(g10
g2
Ntp128
Rp129
(dp130
g14
I30
sg15
F3.403469116555671
sg16
I01
sg17
I6
sg18
I7
sbssS'parent1_id'
p131
I295
sS'num_inputs'
p132
I6
sS'node_genes'
p133
(dp134
I0
g0
(cneat.genes
NodeGene
p135
g2
Ntp136
Rp137
(dp138
S'activation_type'
p139
S'sigmoid'
p140
sS'bias'
p141
F0.0
sS'type'
p142
S'INPUT'
p143
sS'ID'
p144
I0
sS'response'
p145
F4.924273
sbsI1
g0
(g135
g2
Ntp146
Rp147
(dp148
g139
g140
sg141
F0.0
sg142
g143
sg144
I1
sg145
F4.924273
sbsI2
g0
(g135
g2
Ntp149
Rp150
(dp151
g139
g140
sg141
F0.0
sg142
g143
sg144
I2
sg145
F4.924273
sbsI3
g0
(g135
g2
Ntp152
Rp153
(dp154
g139
g140
sg141
F0.0
sg142
g143
sg144
I3
sg145
F4.924273
sbsI4
g0
(g135
g2
Ntp155
Rp156
(dp157
g139
g140
sg141
F0.0
sg142
g143
sg144
I4
sg145
F4.924273
sbsI5
g0
(g135
g2
Ntp158
Rp159
(dp160
g139
g140
sg141
F0.0
sg142
g143
sg144
I5
sg145
F4.924273
sbsI6
g0
(g135
g2
Ntp161
Rp162
(dp163
g139
S'tanh'
p164
sg141
F0.6665386175394665
sg142
S'OUTPUT'
p165
sg144
I6
sg145
F5.128349771153997
sbsI7
g0
(g135
g2
Ntp166
Rp167
(dp168
g139
g164
sg141
F0.5276710093337723
sg142
S'HIDDEN'
p169
sg144
I7
sg145
F4.6470323709563335
sbsI8
g0
(g135
g2
Ntp170
Rp171
(dp172
g139
g164
sg141
F0.7744442138646895
sg142
g169
sg144
I8
sg145
F5.023850378772088
sbsI9
g0
(g135
g2
Ntp173
Rp174
(dp175
g139
g164
sg141
F0.0
sg142
g169
sg144
I9
sg145
F4.924273
sbsI10
g0
(g135
g2
Ntp176
Rp177
(dp178
g139
g164
sg141
F-1.8193835266976848
sg142
g169
sg144
I10
sg145
F4.452711705414165
sbssS'node_order'
p179
(lp180
I7
aI9
aI8
aI10
asS'num_outputs'
p181
I1
sS'fitness'
p182
F6.683333333333334
sS'parent2_id'
p183
I350
sS'config'
p184
g0
(cneat.config
Config
p185
g2
Ntp186
Rp187
(dp188
S'weight_stdev'
p189
F0.9
sS'disjoint_coefficient'
p190
F1.0
sS'prob_delete_node'
p191
F0.05
sS'output_nodes'
p192
I1
sS'checkpoint_generation'
p193
NsS'weight_mutation_power'
p194
F1.0
sS'excess_coefficient'
p195
F1.0
sS'compatibility_threshold'
p196
F3.0
sS'pop_size'
p197
I20
sS'weight_coefficient'
p198
F0.5
sS'elitism'
p199
I2
sS'feedforward'
p200
I01
sS'prob_add_node'
p201
F0.1
sS'genotype'
p202
g1
sS'prob_mutate_activation'
p203
F0.0
sS'conn_gene_type'
p204
g10
sS'connection_fraction'
p205
NsS'activation_functions'
p206
(lp207
g164
asS'response_mutation_power'
p208
F0.1
sS'max_stagnation'
p209
I20
sS'prob_add_conn'
p210
F0.15
sS'survival_threshold'
p211
F0.5
sS'prob_mutate_bias'
p212
F0.1
sS'node_gene_type'
p213
g135
sS'initial_connection'
p214
S'fully_connected'
p215
sS'input_nodes'
p216
I6
sS'prob_replace_weight'
p217
F0.1
sS'diversity_type'
p218
cneat.diversity
ExplicitFitnessSharing
p219
sS'hidden_nodes'
p220
I4
sS'report'
p221
I01
sS'prob_mutate_response'
p222
F0.2
sS'max_weight'
p223
F30.0
sS'min_weight'
p224
F-30.0
sS'prob_toggle_link'
p225
F0.01
sS'save_best'
p226
I00
sS'max_fitness_threshold'
p227
F59999.0
sS'bias_mutation_power'
p228
F1.0
sS'prob_delete_conn'
p229
F0.05
sS'reset_on_extinction'
p230
I01
sS'checkpoint_interval'
p231
NsS'prob_mutate_weight'
p232
F0.8
sbsg144
I364
sb.