ccopy_reg
_reconstructor
p0
(cneat.genome
FFGenome
p1
c__builtin__
object
p2
Ntp3
Rp4
(dp5
S'species_id'
p6
I1
sS'conn_genes'
p7
(dp8
(I4
I7
tp9
g0
(cneat.genes
ConnectionGene
p10
g2
Ntp11
Rp12
(dp13
S'_ConnectionGene__innov_number'
p14
I20
sS'weight'
p15
F0.4413500433966751
sS'enabled'
p16
I01
sS'out_node_id'
p17
I7
sS'in_node_id'
p18
I4
sbs(I4
I8
tp19
g0
(g10
g2
Ntp20
Rp21
(dp22
g14
I21
sg15
F-5.792808843852141
sg16
I01
sg17
I8
sg18
I4
sbs(I5
I6
tp23
g0
(g10
g2
Ntp24
Rp25
(dp26
g14
I29
sg15
F-6.428166171444315
sg16
I01
sg17
I6
sg18
I5
sbs(I2
I8
tp27
g0
(g10
g2
Ntp28
Rp29
(dp30
g14
I11
sg15
F0.6704303500060455
sg16
I00
sg17
I8
sg18
I2
sbs(I9
I8
tp31
g0
(g10
g2
Ntp32
Rp33
(dp34
g14
I55
sg15
F4.87794290893966
sg16
I01
sg17
I8
sg18
I9
sbs(I10
I6
tp35
g0
(g10
g2
Ntp36
Rp37
(dp38
g14
I33
sg15
F2.3238481001261757
sg16
I01
sg17
I6
sg18
I10
sbs(I3
I11
tp39
g0
(g10
g2
Ntp40
Rp41
(dp42
g14
I38
sg15
F-0.5056829220429713
sg16
I01
sg17
I11
sg18
I3
sbs(I0
I7
tp43
g0
(g10
g2
Ntp44
Rp45
(dp46
g14
I0
sg15
F-0.9539106188054923
sg16
I01
sg17
I7
sg18
I0
sbs(I1
I6
tp47
g0
(g10
g2
Ntp48
Rp49
(dp50
g14
I9
sg15
F-3.0767526093378503
sg16
I00
sg17
I6
sg18
I1
sbs(I0
I10
tp51
g0
(g10
g2
Ntp52
Rp53
(dp54
g14
I3
sg15
F-1.9316010709476767
sg16
I01
sg17
I10
sg18
I0
sbs(I7
I11
tp55
g0
(g10
g2
Ntp56
Rp57
(dp58
g14
I44
sg15
F1.0183665646680355
sg16
I00
sg17
I11
sg18
I7
sbs(I3
I7
tp59
g0
(g10
g2
Ntp60
Rp61
(dp62
g14
I15
sg15
F0.32631759522460035
sg16
I01
sg17
I7
sg18
I3
sbs(I5
I8
tp63
g0
(g10
g2
Ntp64
Rp65
(dp66
g14
I26
sg15
F0.5001989001814374
sg16
I01
sg17
I8
sg18
I5
sbs(I3
I10
tp67
g0
(g10
g2
Ntp68
Rp69
(dp70
g14
I18
sg15
F0.46638326878708786
sg16
I01
sg17
I10
sg18
I3
sbs(I3
I6
tp71
g0
(g10
g2
Ntp72
Rp73
(dp74
g14
I19
sg15
F7.571674681221676
sg16
I01
sg17
I6
sg18
I3
sbs(I1
I10
tp75
g0
(g10
g2
Ntp76
Rp77
(dp78
g14
I8
sg15
F-1.607034396946299
sg16
I01
sg17
I10
sg18
I1
sbs(I8
I6
tp79
g0
(g10
g2
Ntp80
Rp81
(dp82
g14
I31
sg15
F0.836404503477532
sg16
I01
sg17
I6
sg18
I8
sbs(I4
I10
tp83
g0
(g10
g2
Ntp84
Rp85
(dp86
g14
I23
sg15
F-1.1768510532231296
sg16
I01
sg17
I10
sg18
I4
sbs(I2
I6
tp87
g0
(g10
g2
Ntp88
Rp89
(dp90
g14
I14
sg15
F-0.5044485142553932
sg16
I01
sg17
I6
sg18
I2
sbs(I2
I10
tp91
g0
(g10
g2
Ntp92
Rp93
(dp94
g14
I13
sg15
F-0.35652056081860073
sg16
I01
sg17
I10
sg18
I2
sbs(I3
I9
tp95
g0
(g10
g2
Ntp96
Rp97
(dp98
g14
I17
sg15
F0.9311284693972641
sg16
I01
sg17
I9
sg18
I3
sbs(I0
I8
tp99
g0
(g10
g2
Ntp100
Rp101
(dp102
g14
I1
sg15
F1.2907473330808166
sg16
I00
sg17
I8
sg18
I0
sbs(I2
I7
tp103
g0
(g10
g2
Ntp104
Rp105
(dp106
g14
I10
sg15
F0.36162950896391854
sg16
I01
sg17
I7
sg18
I2
sbs(I5
I10
tp107
g0
(g10
g2
Ntp108
Rp109
(dp110
g14
I28
sg15
F2.338405231670776
sg16
I01
sg17
I10
sg18
I5
sbs(I4
I6
tp111
g0
(g10
g2
Ntp112
Rp113
(dp114
g14
I24
sg15
F-4.29344508174923
sg16
I01
sg17
I6
sg18
I4
sbs(I11
I8
tp115
g0
(g10
g2
Ntp116
Rp117
(dp118
g14
I39
sg15
F-1.2087928351154984
sg16
I01
sg17
I8
sg18
I11
sbs(I5
I7
tp119
g0
(g10
g2
Ntp120
Rp121
(dp122
g14
I25
sg15
F3.0734023896482343
sg16
I00
sg17
I7
sg18
I5
sbs(I3
I8
tp123
g0
(g10
g2
Ntp124
Rp125
(dp126
g14
I16
sg15
F2.1354488951939707
sg16
I00
sg17
I8
sg18
I3
sbs(I0
I6
tp127
g0
(g10
g2
Ntp128
Rp129
(dp130
g14
I4
sg15
F4.061743583665018
sg16
I00
sg17
I6
sg18
I0
sbs(I1
I8
tp131
g0
(g10
g2
Ntp132
Rp133
(dp134
g14
I6
sg15
F-1.0727410169322888
sg16
I01
sg17
I8
sg18
I1
sbs(I1
I7
tp135
g0
(g10
g2
Ntp136
Rp137
(dp138
g14
I5
sg15
F0.8080539099618382
sg16
I01
sg17
I7
sg18
I1
sbs(I7
I6
tp139
g0
(g10
g2
Ntp140
Rp141
(dp142
g14
I30
sg15
F0.12329492390502139
sg16
I01
sg17
I6
sg18
I7
sbssS'parent1_id'
p143
I652
sS'num_inputs'
p144
I6
sS'node_genes'
p145
(dp146
I0
g0
(cneat.genes
NodeGene
p147
g2
Ntp148
Rp149
(dp150
S'activation_type'
p151
S'sigmoid'
p152
sS'bias'
p153
F0.0
sS'type'
p154
S'INPUT'
p155
sS'ID'
p156
I0
sS'response'
p157
F4.924273
sbsI1
g0
(g147
g2
Ntp158
Rp159
(dp160
g151
g152
sg153
F0.0
sg154
g155
sg156
I1
sg157
F4.924273
sbsI2
g0
(g147
g2
Ntp161
Rp162
(dp163
g151
g152
sg153
F0.0
sg154
g155
sg156
I2
sg157
F4.924273
sbsI3
g0
(g147
g2
Ntp164
Rp165
(dp166
g151
g152
sg153
F0.0
sg154
g155
sg156
I3
sg157
F4.924273
sbsI4
g0
(g147
g2
Ntp167
Rp168
(dp169
g151
g152
sg153
F0.0
sg154
g155
sg156
I4
sg157
F4.924273
sbsI5
g0
(g147
g2
Ntp170
Rp171
(dp172
g151
g152
sg153
F0.0
sg154
g155
sg156
I5
sg157
F4.924273
sbsI6
g0
(g147
g2
Ntp173
Rp174
(dp175
g151
S'tanh'
p176
sg153
F0.6665386175394665
sg154
S'OUTPUT'
p177
sg156
I6
sg157
F5.328674872879639
sbsI7
g0
(g147
g2
Ntp178
Rp179
(dp180
g151
g176
sg153
F0.0
sg154
S'HIDDEN'
p181
sg156
I7
sg157
F4.722998380906975
sbsI8
g0
(g147
g2
Ntp182
Rp183
(dp184
g151
g176
sg153
F0.9692965759074652
sg154
g181
sg156
I8
sg157
F4.901774603512656
sbsI9
g0
(g147
g2
Ntp185
Rp186
(dp187
g151
g176
sg153
F0.3755412028305716
sg154
g181
sg156
I9
sg157
F4.927442072126483
sbsI10
g0
(g147
g2
Ntp188
Rp189
(dp190
g151
g176
sg153
F2.0639475303936843
sg154
g181
sg156
I10
sg157
F4.111168621562462
sbsI11
g0
(g147
g2
Ntp191
Rp192
(dp193
g151
g176
sg153
F0.0
sg154
g181
sg156
I11
sg157
F4.894482585539381
sbssS'node_order'
p194
(lp195
I7
aI11
aI9
aI8
aI10
asS'num_outputs'
p196
I1
sS'fitness'
p197
F10.833333333333334
sS'parent2_id'
p198
I651
sS'config'
p199
g0
(cneat.config
Config
p200
g2
Ntp201
Rp202
(dp203
S'weight_stdev'
p204
F0.9
sS'disjoint_coefficient'
p205
F1.0
sS'prob_delete_node'
p206
F0.05
sS'output_nodes'
p207
I1
sS'checkpoint_generation'
p208
NsS'weight_mutation_power'
p209
F1.0
sS'excess_coefficient'
p210
F1.0
sS'compatibility_threshold'
p211
F3.0
sS'pop_size'
p212
I20
sS'weight_coefficient'
p213
F0.5
sS'elitism'
p214
I2
sS'feedforward'
p215
I01
sS'prob_add_node'
p216
F0.1
sS'genotype'
p217
g1
sS'prob_mutate_activation'
p218
F0.0
sS'conn_gene_type'
p219
g10
sS'connection_fraction'
p220
NsS'activation_functions'
p221
(lp222
g176
asS'response_mutation_power'
p223
F0.1
sS'max_stagnation'
p224
I20
sS'prob_add_conn'
p225
F0.15
sS'survival_threshold'
p226
F0.5
sS'prob_mutate_bias'
p227
F0.1
sS'node_gene_type'
p228
g147
sS'initial_connection'
p229
S'fully_connected'
p230
sS'input_nodes'
p231
I6
sS'prob_replace_weight'
p232
F0.1
sS'diversity_type'
p233
cneat.diversity
ExplicitFitnessSharing
p234
sS'hidden_nodes'
p235
I4
sS'report'
p236
I01
sS'prob_mutate_response'
p237
F0.2
sS'max_weight'
p238
F30.0
sS'min_weight'
p239
F-30.0
sS'prob_toggle_link'
p240
F0.01
sS'save_best'
p241
I00
sS'max_fitness_threshold'
p242
F59999.0
sS'bias_mutation_power'
p243
F1.0
sS'prob_delete_conn'
p244
F0.05
sS'reset_on_extinction'
p245
I01
sS'checkpoint_interval'
p246
NsS'prob_mutate_weight'
p247
F0.8
sbsg156
I669
sb.