ccopy_reg
_reconstructor
p0
(cneat.genome
FFGenome
p1
c__builtin__
object
p2
Ntp3
Rp4
(dp5
S'species_id'
p6
I1
sS'conn_genes'
p7
(dp8
(I2
I7
tp9
g0
(cneat.genes
ConnectionGene
p10
g2
Ntp11
Rp12
(dp13
S'_ConnectionGene__innov_number'
p14
I10
sS'weight'
p15
F-3.342571751828789
sS'enabled'
p16
I01
sS'out_node_id'
p17
I7
sS'in_node_id'
p18
I2
sbs(I4
I7
tp19
g0
(g10
g2
Ntp20
Rp21
(dp22
g14
I20
sg15
F1.3277410967981396
sg16
I01
sg17
I7
sg18
I4
sbs(I2
I6
tp23
g0
(g10
g2
Ntp24
Rp25
(dp26
g14
I14
sg15
F0.06577634304497681
sg16
I01
sg17
I6
sg18
I2
sbs(I4
I6
tp27
g0
(g10
g2
Ntp28
Rp29
(dp30
g14
I24
sg15
F-4.686438651969
sg16
I01
sg17
I6
sg18
I4
sbs(I4
I8
tp31
g0
(g10
g2
Ntp32
Rp33
(dp34
g14
I21
sg15
F-4.664710598480635
sg16
I01
sg17
I8
sg18
I4
sbs(I5
I6
tp35
g0
(g10
g2
Ntp36
Rp37
(dp38
g14
I29
sg15
F-2.697404019815919
sg16
I01
sg17
I6
sg18
I5
sbs(I2
I8
tp39
g0
(g10
g2
Ntp40
Rp41
(dp42
g14
I11
sg15
F3.083271863757067
sg16
I00
sg17
I8
sg18
I2
sbs(I7
I6
tp43
g0
(g10
g2
Ntp44
Rp45
(dp46
g14
I30
sg15
F1.5020875858812262
sg16
I01
sg17
I6
sg18
I7
sbs(I5
I7
tp47
g0
(g10
g2
Ntp48
Rp49
(dp50
g14
I25
sg15
F1.3074728872223487
sg16
I00
sg17
I7
sg18
I5
sbs(I0
I7
tp51
g0
(g10
g2
Ntp52
Rp53
(dp54
g14
I0
sg15
F0.03680040732755855
sg16
I01
sg17
I7
sg18
I0
sbs(I1
I7
tp55
g0
(g10
g2
Ntp56
Rp57
(dp58
g14
I5
sg15
F3.3744040366895813
sg16
I01
sg17
I7
sg18
I1
sbs(I3
I8
tp59
g0
(g10
g2
Ntp60
Rp61
(dp62
g14
I16
sg15
F1.0347890141083176
sg16
I01
sg17
I8
sg18
I3
sbs(I0
I6
tp63
g0
(g10
g2
Ntp64
Rp65
(dp66
g14
I4
sg15
F0.7868673556730326
sg16
I00
sg17
I6
sg18
I0
sbs(I1
I8
tp67
g0
(g10
g2
Ntp68
Rp69
(dp70
g14
I6
sg15
F-0.254697369820684
sg16
I01
sg17
I8
sg18
I1
sbs(I1
I6
tp71
g0
(g10
g2
Ntp72
Rp73
(dp74
g14
I9
sg15
F1.8754663174256891
sg16
I00
sg17
I6
sg18
I1
sbs(I3
I6
tp75
g0
(g10
g2
Ntp76
Rp77
(dp78
g14
I19
sg15
F2.3645607489382723
sg16
I01
sg17
I6
sg18
I3
sbs(I8
I6
tp79
g0
(g10
g2
Ntp80
Rp81
(dp82
g14
I31
sg15
F-2.101844852483026
sg16
I01
sg17
I6
sg18
I8
sbs(I3
I7
tp83
g0
(g10
g2
Ntp84
Rp85
(dp86
g14
I15
sg15
F-2.797080460311754
sg16
I01
sg17
I7
sg18
I3
sbs(I0
I8
tp87
g0
(g10
g2
Ntp88
Rp89
(dp90
g14
I1
sg15
F1.5680925662378051
sg16
I01
sg17
I8
sg18
I0
sbs(I5
I8
tp91
g0
(g10
g2
Ntp92
Rp93
(dp94
g14
I26
sg15
F-0.005962941300363622
sg16
I01
sg17
I8
sg18
I5
sbssS'parent1_id'
p95
I472
sS'num_inputs'
p96
I6
sS'node_genes'
p97
(dp98
I0
g0
(cneat.genes
NodeGene
p99
g2
Ntp100
Rp101
(dp102
S'activation_type'
p103
S'sigmoid'
p104
sS'bias'
p105
F0.0
sS'type'
p106
S'INPUT'
p107
sS'ID'
p108
I0
sS'response'
p109
F4.924273
sbsI1
g0
(g99
g2
Ntp110
Rp111
(dp112
g103
g104
sg105
F0.0
sg106
g107
sg108
I1
sg109
F4.924273
sbsI2
g0
(g99
g2
Ntp113
Rp114
(dp115
g103
g104
sg105
F0.0
sg106
g107
sg108
I2
sg109
F4.924273
sbsI3
g0
(g99
g2
Ntp116
Rp117
(dp118
g103
g104
sg105
F0.0
sg106
g107
sg108
I3
sg109
F4.924273
sbsI4
g0
(g99
g2
Ntp119
Rp120
(dp121
g103
g104
sg105
F0.0
sg106
g107
sg108
I4
sg109
F4.924273
sbsI5
g0
(g99
g2
Ntp122
Rp123
(dp124
g103
g104
sg105
F0.0
sg106
g107
sg108
I5
sg109
F4.924273
sbsI6
g0
(g99
g2
Ntp125
Rp126
(dp127
g103
S'tanh'
p128
sg105
F0.6665386175394665
sg106
S'OUTPUT'
p129
sg108
I6
sg109
F5.128349771153997
sbsI7
g0
(g99
g2
Ntp130
Rp131
(dp132
g103
g128
sg105
F0.5276710093337723
sg106
S'HIDDEN'
p133
sg108
I7
sg109
F4.6470323709563335
sbsI8
g0
(g99
g2
Ntp134
Rp135
(dp136
g103
g128
sg105
F0.9765850738484497
sg106
g133
sg108
I8
sg109
F5.278172073789099
sbssS'node_order'
p137
(lp138
I7
aI8
asS'num_outputs'
p139
I1
sS'fitness'
p140
F8.35
sS'parent2_id'
p141
I472
sS'config'
p142
g0
(cneat.config
Config
p143
g2
Ntp144
Rp145
(dp146
S'weight_stdev'
p147
F0.9
sS'disjoint_coefficient'
p148
F1.0
sS'prob_delete_node'
p149
F0.05
sS'output_nodes'
p150
I1
sS'checkpoint_generation'
p151
NsS'weight_mutation_power'
p152
F1.0
sS'excess_coefficient'
p153
F1.0
sS'compatibility_threshold'
p154
F3.0
sS'pop_size'
p155
I20
sS'weight_coefficient'
p156
F0.5
sS'elitism'
p157
I2
sS'feedforward'
p158
I01
sS'prob_add_node'
p159
F0.1
sS'genotype'
p160
g1
sS'prob_mutate_activation'
p161
F0.0
sS'conn_gene_type'
p162
g10
sS'connection_fraction'
p163
NsS'activation_functions'
p164
(lp165
g128
asS'response_mutation_power'
p166
F0.1
sS'max_stagnation'
p167
I20
sS'prob_add_conn'
p168
F0.15
sS'survival_threshold'
p169
F0.5
sS'prob_mutate_bias'
p170
F0.1
sS'node_gene_type'
p171
g99
sS'initial_connection'
p172
S'fully_connected'
p173
sS'input_nodes'
p174
I6
sS'prob_replace_weight'
p175
F0.1
sS'diversity_type'
p176
cneat.diversity
ExplicitFitnessSharing
p177
sS'hidden_nodes'
p178
I4
sS'report'
p179
I01
sS'prob_mutate_response'
p180
F0.2
sS'max_weight'
p181
F30.0
sS'min_weight'
p182
F-30.0
sS'prob_toggle_link'
p183
F0.01
sS'save_best'
p184
I00
sS'max_fitness_threshold'
p185
F59999.0
sS'bias_mutation_power'
p186
F1.0
sS'prob_delete_conn'
p187
F0.05
sS'reset_on_extinction'
p188
I01
sS'checkpoint_interval'
p189
NsS'prob_mutate_weight'
p190
F0.8
sbsg108
I501
sb.