ccopy_reg
_reconstructor
p0
(cneat.genome
FFGenome
p1
c__builtin__
object
p2
Ntp3
Rp4
(dp5
S'species_id'
p6
I1
sS'conn_genes'
p7
(dp8
(I2
I7
tp9
g0
(cneat.genes
ConnectionGene
p10
g2
Ntp11
Rp12
(dp13
S'_ConnectionGene__innov_number'
p14
I10
sS'weight'
p15
F0.03789745087235245
sS'enabled'
p16
I01
sS'out_node_id'
p17
I7
sS'in_node_id'
p18
I2
sbs(I4
I10
tp19
g0
(g10
g2
Ntp20
Rp21
(dp22
g14
I23
sg15
F0.68118627024126
sg16
I01
sg17
I10
sg18
I4
sbs(I4
I7
tp23
g0
(g10
g2
Ntp24
Rp25
(dp26
g14
I20
sg15
F1.7376083059625143
sg16
I01
sg17
I7
sg18
I4
sbs(I2
I6
tp27
g0
(g10
g2
Ntp28
Rp29
(dp30
g14
I14
sg15
F0.38934585798361815
sg16
I01
sg17
I6
sg18
I2
sbs(I5
I10
tp31
g0
(g10
g2
Ntp32
Rp33
(dp34
g14
I28
sg15
F0.4141031714914146
sg16
I01
sg17
I10
sg18
I5
sbs(I4
I6
tp35
g0
(g10
g2
Ntp36
Rp37
(dp38
g14
I24
sg15
F-0.6314201833750324
sg16
I01
sg17
I6
sg18
I4
sbs(I2
I9
tp39
g0
(g10
g2
Ntp40
Rp41
(dp42
g14
I12
sg15
F-1.91702889855258
sg16
I00
sg17
I9
sg18
I2
sbs(I1
I7
tp43
g0
(g10
g2
Ntp44
Rp45
(dp46
g14
I5
sg15
F2.0516321997497657
sg16
I01
sg17
I7
sg18
I1
sbs(I5
I6
tp47
g0
(g10
g2
Ntp48
Rp49
(dp50
g14
I29
sg15
F-6.143444023734302
sg16
I01
sg17
I6
sg18
I5
sbs(I3
I10
tp51
g0
(g10
g2
Ntp52
Rp53
(dp54
g14
I18
sg15
F1.027737437965213
sg16
I00
sg17
I10
sg18
I3
sbs(I10
I6
tp55
g0
(g10
g2
Ntp56
Rp57
(dp58
g14
I33
sg15
F-2.8614016944029523
sg16
I01
sg17
I6
sg18
I10
sbs(I0
I7
tp59
g0
(g10
g2
Ntp60
Rp61
(dp62
g14
I0
sg15
F-0.8521467110486496
sg16
I01
sg17
I7
sg18
I0
sbs(I2
I10
tp63
g0
(g10
g2
Ntp64
Rp65
(dp66
g14
I13
sg15
F5.238564335697862
sg16
I01
sg17
I10
sg18
I2
sbs(I3
I9
tp67
g0
(g10
g2
Ntp68
Rp69
(dp70
g14
I17
sg15
F1.7049285009266404
sg16
I01
sg17
I9
sg18
I3
sbs(I1
I6
tp71
g0
(g10
g2
Ntp72
Rp73
(dp74
g14
I9
sg15
F-0.6180542659120744
sg16
I00
sg17
I6
sg18
I1
sbs(I0
I10
tp75
g0
(g10
g2
Ntp76
Rp77
(dp78
g14
I3
sg15
F-0.39566734284422933
sg16
I01
sg17
I10
sg18
I0
sbs(I3
I6
tp79
g0
(g10
g2
Ntp80
Rp81
(dp82
g14
I19
sg15
F6.30505237702579
sg16
I01
sg17
I6
sg18
I3
sbs(I5
I7
tp83
g0
(g10
g2
Ntp84
Rp85
(dp86
g14
I25
sg15
F-0.39267818947517164
sg16
I00
sg17
I7
sg18
I5
sbs(I1
I10
tp87
g0
(g10
g2
Ntp88
Rp89
(dp90
g14
I8
sg15
F2.926891014362611
sg16
I01
sg17
I10
sg18
I1
sbs(I3
I7
tp91
g0
(g10
g2
Ntp92
Rp93
(dp94
g14
I15
sg15
F-0.6987239704563246
sg16
I00
sg17
I7
sg18
I3
sbs(I7
I6
tp95
g0
(g10
g2
Ntp96
Rp97
(dp98
g14
I30
sg15
F-3.4922539601377562
sg16
I01
sg17
I6
sg18
I7
sbssS'parent1_id'
p99
I643
sS'num_inputs'
p100
I6
sS'node_genes'
p101
(dp102
I0
g0
(cneat.genes
NodeGene
p103
g2
Ntp104
Rp105
(dp106
S'activation_type'
p107
S'sigmoid'
p108
sS'bias'
p109
F0.0
sS'type'
p110
S'INPUT'
p111
sS'ID'
p112
I0
sS'response'
p113
F4.924273
sbsI1
g0
(g103
g2
Ntp114
Rp115
(dp116
g107
g108
sg109
F0.0
sg110
g111
sg112
I1
sg113
F4.924273
sbsI2
g0
(g103
g2
Ntp117
Rp118
(dp119
g107
g108
sg109
F0.0
sg110
g111
sg112
I2
sg113
F4.924273
sbsI3
g0
(g103
g2
Ntp120
Rp121
(dp122
g107
g108
sg109
F0.0
sg110
g111
sg112
I3
sg113
F4.924273
sbsI4
g0
(g103
g2
Ntp123
Rp124
(dp125
g107
g108
sg109
F0.0
sg110
g111
sg112
I4
sg113
F4.924273
sbsI5
g0
(g103
g2
Ntp126
Rp127
(dp128
g107
g108
sg109
F0.0
sg110
g111
sg112
I5
sg113
F4.924273
sbsI6
g0
(g103
g2
Ntp129
Rp130
(dp131
g107
S'tanh'
p132
sg109
F0.3408024964061478
sg110
S'OUTPUT'
p133
sg112
I6
sg113
F5.328674872879639
sbsI7
g0
(g103
g2
Ntp134
Rp135
(dp136
g107
g132
sg109
F2.155434239874614
sg110
S'HIDDEN'
p137
sg112
I7
sg113
F4.671657525514766
sbsI9
g0
(g103
g2
Ntp138
Rp139
(dp140
g107
g132
sg109
F-0.6038854038176175
sg110
g137
sg112
I9
sg113
F4.927442072126483
sbsI10
g0
(g103
g2
Ntp141
Rp142
(dp143
g107
g132
sg109
F0.3055610947415426
sg110
g137
sg112
I10
sg113
F4.255001376364803
sbssS'node_order'
p144
(lp145
I7
aI9
aI10
asS'num_outputs'
p146
I1
sS'fitness'
p147
F10.616666666666665
sS'parent2_id'
p148
I632
sS'config'
p149
g0
(cneat.config
Config
p150
g2
Ntp151
Rp152
(dp153
S'weight_stdev'
p154
F0.9
sS'disjoint_coefficient'
p155
F1.0
sS'prob_delete_node'
p156
F0.05
sS'output_nodes'
p157
I1
sS'checkpoint_generation'
p158
NsS'weight_mutation_power'
p159
F1.0
sS'excess_coefficient'
p160
F1.0
sS'compatibility_threshold'
p161
F3.0
sS'pop_size'
p162
I20
sS'weight_coefficient'
p163
F0.5
sS'elitism'
p164
I2
sS'feedforward'
p165
I01
sS'prob_add_node'
p166
F0.1
sS'genotype'
p167
g1
sS'prob_mutate_activation'
p168
F0.0
sS'conn_gene_type'
p169
g10
sS'connection_fraction'
p170
NsS'activation_functions'
p171
(lp172
g132
asS'response_mutation_power'
p173
F0.1
sS'max_stagnation'
p174
I20
sS'prob_add_conn'
p175
F0.15
sS'survival_threshold'
p176
F0.5
sS'prob_mutate_bias'
p177
F0.1
sS'node_gene_type'
p178
g103
sS'initial_connection'
p179
S'fully_connected'
p180
sS'input_nodes'
p181
I6
sS'prob_replace_weight'
p182
F0.1
sS'diversity_type'
p183
cneat.diversity
ExplicitFitnessSharing
p184
sS'hidden_nodes'
p185
I4
sS'report'
p186
I01
sS'prob_mutate_response'
p187
F0.2
sS'max_weight'
p188
F30.0
sS'min_weight'
p189
F-30.0
sS'prob_toggle_link'
p190
F0.01
sS'save_best'
p191
I00
sS'max_fitness_threshold'
p192
F59999.0
sS'bias_mutation_power'
p193
F1.0
sS'prob_delete_conn'
p194
F0.05
sS'reset_on_extinction'
p195
I01
sS'checkpoint_interval'
p196
NsS'prob_mutate_weight'
p197
F0.8
sbsg112
I664
sb.