ccopy_reg
_reconstructor
p0
(cneat.genome
FFGenome
p1
c__builtin__
object
p2
Ntp3
Rp4
(dp5
S'species_id'
p6
I1
sS'conn_genes'
p7
(dp8
(I5
I9
tp9
g0
(cneat.genes
ConnectionGene
p10
g2
Ntp11
Rp12
(dp13
S'_ConnectionGene__innov_number'
p14
I22
sS'weight'
p15
F1.223903699032609
sS'enabled'
p16
I00
sS'out_node_id'
p17
I9
sS'in_node_id'
p18
I5
sbs(I4
I7
tp19
g0
(g10
g2
Ntp20
Rp21
(dp22
g14
I16
sg15
F-4.766640134901122
sg16
I01
sg17
I7
sg18
I4
sbs(I4
I8
tp23
g0
(g10
g2
Ntp24
Rp25
(dp26
g14
I17
sg15
F0.7543076912205142
sg16
I01
sg17
I8
sg18
I4
sbs(I5
I6
tp27
g0
(g10
g2
Ntp28
Rp29
(dp30
g14
I23
sg15
F-0.011304388341884075
sg16
I01
sg17
I6
sg18
I5
sbs(I10
I6
tp31
g0
(g10
g2
Ntp32
Rp33
(dp34
g14
I29
sg15
F1.2204318841108783
sg16
I01
sg17
I6
sg18
I10
sbs(I3
I11
tp35
g0
(g10
g2
Ntp36
Rp37
(dp38
g14
I48
sg15
F-3.865283771587436
sg16
I01
sg17
I11
sg18
I3
sbs(I0
I7
tp39
g0
(g10
g2
Ntp40
Rp41
(dp42
g14
I0
sg15
F-5.0
sg16
I00
sg17
I7
sg18
I0
sbs(I1
I6
tp43
g0
(g10
g2
Ntp44
Rp45
(dp46
g14
I7
sg15
F-4.1048884134311825
sg16
I01
sg17
I6
sg18
I1
sbs(I3
I7
tp47
g0
(g10
g2
Ntp48
Rp49
(dp50
g14
I12
sg15
F-1.764762339542502
sg16
I01
sg17
I7
sg18
I3
sbs(I5
I8
tp51
g0
(g10
g2
Ntp52
Rp53
(dp54
g14
I21
sg15
F1.691337618269082
sg16
I01
sg17
I8
sg18
I5
sbs(I4
I9
tp55
g0
(g10
g2
Ntp56
Rp57
(dp58
g14
I18
sg15
F0.07711941438604542
sg16
I01
sg17
I9
sg18
I4
sbs(I2
I9
tp59
g0
(g10
g2
Ntp60
Rp61
(dp62
g14
I10
sg15
F-1.7961852082333714
sg16
I01
sg17
I9
sg18
I2
sbs(I3
I6
tp63
g0
(g10
g2
Ntp64
Rp65
(dp66
g14
I15
sg15
F4.5735920756186
sg16
I01
sg17
I6
sg18
I3
sbs(I8
I6
tp67
g0
(g10
g2
Ntp68
Rp69
(dp70
g14
I25
sg15
F-4.746304247347988
sg16
I01
sg17
I6
sg18
I8
sbs(I2
I6
tp71
g0
(g10
g2
Ntp72
Rp73
(dp74
g14
I11
sg15
F-0.6641017505950296
sg16
I00
sg17
I6
sg18
I2
sbs(I11
I9
tp75
g0
(g10
g2
Ntp76
Rp77
(dp78
g14
I49
sg15
F-0.32501500519478016
sg16
I01
sg17
I9
sg18
I11
sbs(I2
I10
tp79
g0
(g10
g2
Ntp80
Rp81
(dp82
g14
I34
sg15
F-2.1948463893783083
sg16
I01
sg17
I10
sg18
I2
sbs(I3
I9
tp83
g0
(g10
g2
Ntp84
Rp85
(dp86
g14
I14
sg15
F1.5798902688656629
sg16
I00
sg17
I9
sg18
I3
sbs(I1
I9
tp87
g0
(g10
g2
Ntp88
Rp89
(dp90
g14
I6
sg15
F1.2663127624847128
sg16
I00
sg17
I9
sg18
I1
sbs(I0
I8
tp91
g0
(g10
g2
Ntp92
Rp93
(dp94
g14
I1
sg15
F2.875067709634433
sg16
I01
sg17
I8
sg18
I0
sbs(I9
I6
tp95
g0
(g10
g2
Ntp96
Rp97
(dp98
g14
I26
sg15
F-0.6742575145242384
sg16
I01
sg17
I6
sg18
I9
sbs(I2
I7
tp99
g0
(g10
g2
Ntp100
Rp101
(dp102
g14
I8
sg15
F2.4578250451738866
sg16
I01
sg17
I7
sg18
I2
sbs(I5
I10
tp103
g0
(g10
g2
Ntp104
Rp105
(dp106
g14
I30
sg15
F5.0
sg16
I01
sg17
I10
sg18
I5
sbs(I4
I6
tp107
g0
(g10
g2
Ntp108
Rp109
(dp110
g14
I19
sg15
F-1.5747450069457936
sg16
I01
sg17
I6
sg18
I4
sbs(I1
I12
tp111
g0
(g10
g2
Ntp112
Rp113
(dp114
g14
I57
sg15
F0.8523008538318974
sg16
I01
sg17
I12
sg18
I1
sbs(I5
I7
tp115
g0
(g10
g2
Ntp116
Rp117
(dp118
g14
I20
sg15
F-0.974849663233935
sg16
I01
sg17
I7
sg18
I5
sbs(I3
I8
tp119
g0
(g10
g2
Ntp120
Rp121
(dp122
g14
I13
sg15
F-0.020140551728603295
sg16
I01
sg17
I8
sg18
I3
sbs(I0
I6
tp123
g0
(g10
g2
Ntp124
Rp125
(dp126
g14
I3
sg15
F4.285839278061917
sg16
I00
sg17
I6
sg18
I0
sbs(I1
I8
tp127
g0
(g10
g2
Ntp128
Rp129
(dp130
g14
I5
sg15
F3.6010643289158804
sg16
I01
sg17
I8
sg18
I1
sbs(I1
I7
tp131
g0
(g10
g2
Ntp132
Rp133
(dp134
g14
I4
sg15
F1.4532068787642884
sg16
I01
sg17
I7
sg18
I1
sbs(I0
I9
tp135
g0
(g10
g2
Ntp136
Rp137
(dp138
g14
I2
sg15
F-2.3869584219135973
sg16
I00
sg17
I9
sg18
I0
sbs(I12
I8
tp139
g0
(g10
g2
Ntp140
Rp141
(dp142
g14
I59
sg15
F0.6045785210673044
sg16
I01
sg17
I8
sg18
I12
sbssS'parent1_id'
p143
I758
sS'num_inputs'
p144
I6
sS'node_genes'
p145
(dp146
I0
g0
(cneat.genes
NodeGene
p147
g2
Ntp148
Rp149
(dp150
S'activation_type'
p151
S'sigmoid'
p152
sS'bias'
p153
F0.0
sS'type'
p154
S'INPUT'
p155
sS'ID'
p156
I0
sS'response'
p157
F4.924273
sbsI1
g0
(g147
g2
Ntp158
Rp159
(dp160
g151
g152
sg153
F0.0
sg154
g155
sg156
I1
sg157
F4.924273
sbsI2
g0
(g147
g2
Ntp161
Rp162
(dp163
g151
g152
sg153
F0.0
sg154
g155
sg156
I2
sg157
F4.924273
sbsI3
g0
(g147
g2
Ntp164
Rp165
(dp166
g151
g152
sg153
F0.0
sg154
g155
sg156
I3
sg157
F4.924273
sbsI4
g0
(g147
g2
Ntp167
Rp168
(dp169
g151
g152
sg153
F0.0
sg154
g155
sg156
I4
sg157
F4.924273
sbsI5
g0
(g147
g2
Ntp170
Rp171
(dp172
g151
g152
sg153
F0.0
sg154
g155
sg156
I5
sg157
F4.924273
sbsI6
g0
(g147
g2
Ntp173
Rp174
(dp175
g151
S'tanh'
p176
sg153
F1.010200486512457
sg154
S'OUTPUT'
p177
sg156
I6
sg157
F4.818971354856533
sbsI7
g0
(g147
g2
Ntp178
Rp179
(dp180
g151
g176
sg153
F-1.0705910496204705
sg154
S'HIDDEN'
p181
sg156
I7
sg157
F4.559475081653178
sbsI8
g0
(g147
g2
Ntp182
Rp183
(dp184
g151
g176
sg153
F0.13512014955331025
sg154
g181
sg156
I8
sg157
F4.70328688762683
sbsI9
g0
(g147
g2
Ntp185
Rp186
(dp187
g151
g176
sg153
F-2.0871082201216615
sg154
g181
sg156
I9
sg157
F4.8912463258929515
sbsI10
g0
(g147
g2
Ntp188
Rp189
(dp190
g151
g176
sg153
F-0.6973614491590807
sg154
g181
sg156
I10
sg157
F4.914234086139044
sbsI11
g0
(g147
g2
Ntp191
Rp192
(dp193
g151
g176
sg153
F-0.6370272523364452
sg154
g181
sg156
I11
sg157
F5.0
sbsI12
g0
(g147
g2
Ntp194
Rp195
(dp196
g151
g176
sg153
F-1.0892214497757087
sg154
g181
sg156
I12
sg157
F4.988171369610738
sbssS'node_order'
p197
(lp198
I7
aI12
aI8
aI11
aI9
aI10
asS'num_outputs'
p199
I1
sS'fitness'
p200
F14.5
sS'parent2_id'
p201
I781
sS'config'
p202
g0
(cneat.config
Config
p203
g2
Ntp204
Rp205
(dp206
S'weight_stdev'
p207
F0.9
sS'disjoint_coefficient'
p208
F1.0
sS'prob_delete_node'
p209
F0.05
sS'output_nodes'
p210
I1
sS'checkpoint_generation'
p211
NsS'weight_mutation_power'
p212
F1.0
sS'excess_coefficient'
p213
F1.0
sS'compatibility_threshold'
p214
F3.0
sS'pop_size'
p215
I30
sS'weight_coefficient'
p216
F0.5
sS'elitism'
p217
I2
sS'feedforward'
p218
I01
sS'prob_add_node'
p219
F0.2
sS'genotype'
p220
g1
sS'prob_mutate_activation'
p221
F0.0
sS'conn_gene_type'
p222
g10
sS'connection_fraction'
p223
NsS'activation_functions'
p224
(lp225
g176
asS'response_mutation_power'
p226
F0.1
sS'max_stagnation'
p227
I20
sS'prob_add_conn'
p228
F0.25
sS'survival_threshold'
p229
F0.4
sS'prob_mutate_bias'
p230
F0.1
sS'node_gene_type'
p231
g147
sS'initial_connection'
p232
S'fully_connected'
p233
sS'input_nodes'
p234
I6
sS'prob_replace_weight'
p235
F0.1
sS'diversity_type'
p236
cneat.diversity
ExplicitFitnessSharing
p237
sS'hidden_nodes'
p238
I3
sS'report'
p239
I01
sS'prob_mutate_response'
p240
F0.2
sS'max_weight'
p241
F5.0
sS'min_weight'
p242
F-5.0
sS'prob_toggle_link'
p243
F0.01
sS'save_best'
p244
I00
sS'max_fitness_threshold'
p245
F59999.0
sS'bias_mutation_power'
p246
F1.0
sS'prob_delete_conn'
p247
F0.05
sS'reset_on_extinction'
p248
I01
sS'checkpoint_interval'
p249
NsS'prob_mutate_weight'
p250
F0.8
sbsg156
I809
sb.